(lp0
(lp1
S'240'
p2
aS'Collection'
p3
aS'J8'
p4
aS'3'
p5
aS'1'
p6
aS'51'
p7
aS'4'
p8
aS'0'
p9
aS'48'
p10
aS'0'
p11
aS'0'
p12
aa(lp13
S'241'
p14
aS'Collection'
p15
aS'J8'
p16
aS'4'
p17
aS'1'
p18
aS'54'
p19
aS'4'
p20
aS'1'
p21
aS'49'
p22
aS'0'
p23
aS'0'
p24
aa(lp25
S'242'
p26
aS'Collection'
p27
aS'J8'
p28
aS'5'
p29
aS'1'
p30
aS'57'
p31
aS'4'
p32
aS'2'
p33
aS'50'
p34
aS'0'
p35
aS'0'
p36
aa(lp37
S'243'
p38
aS'Collection'
p39
aS'J8'
p40
aS'6'
p41
aS'1'
p42
aS'60'
p43
aS'4'
p44
aS'3'
p45
aS'51'
p46
aS'0'
p47
aS'0'
p48
aa(lp49
S'244'
p50
aS'Collection'
p51
aS'J8'
p52
aS'7'
p53
aS'1'
p54
aS'63'
p55
aS'4'
p56
aS'4'
p57
aS'52'
p58
aS'0'
p59
aS'0'
p60
aa(lp61
S'245'
p62
aS'Collection'
p63
aS'J8'
p64
aS'8'
p65
aS'1'
p66
aS'66'
p67
aS'4'
p68
aS'5'
p69
aS'53'
p70
aS'0'
p71
aS'0'
p72
aa(lp73
S'246'
p74
aS'Collection'
p75
aS'J8'
p76
aS'9'
p77
aS'1'
p78
aS'69'
p79
aS'4'
p80
aS'6'
p81
aS'54'
p82
aS'0'
p83
aS'0'
p84
aa(lp85
S'247'
p86
aS'Collection'
p87
aS'J8'
p88
aS'10'
p89
aS'1'
p90
aS'72'
p91
aS'4'
p92
aS'7'
p93
aS'55'
p94
aS'0'
p95
aS'0'
p96
aa(lp97
S'248'
p98
aS'Collection'
p99
aS'J8'
p100
aS'11'
p101
aS'1'
p102
aS'75'
p103
aS'4'
p104
aS'8'
p105
aS'56'
p106
aS'0'
p107
aS'0'
p108
aa(lp109
S'249'
p110
aS'Collection'
p111
aS'J8'
p112
aS'12'
p113
aS'1'
p114
aS'78'
p115
aS'4'
p116
aS'9'
p117
aS'57'
p118
aS'0'
p119
aS'0'
p120
aa(lp121
S'250'
p122
aS'Collection'
p123
aS'J8'
p124
aS'13'
p125
aS'1'
p126
aS'81'
p127
aS'4'
p128
aS'10'
p129
aS'58'
p130
aS'0'
p131
aS'0'
p132
aa(lp133
S'251'
p134
aS'Collection'
p135
aS'J8'
p136
aS'14'
p137
aS'1'
p138
aS'84'
p139
aS'4'
p140
aS'11'
p141
aS'59'
p142
aS'0'
p143
aS'0'
p144
aa(lp145
S'252'
p146
aS'Collection'
p147
aS'J8'
p148
aS'15'
p149
aS'1'
p150
aS'87'
p151
aS'4'
p152
aS'12'
p153
aS'60'
p154
aS'0'
p155
aS'0'
p156
aa(lp157
S'253'
p158
aS'Collection'
p159
aS'J8'
p160
aS'16'
p161
aS'1'
p162
aS'90'
p163
aS'4'
p164
aS'13'
p165
aS'61'
p166
aS'0'
p167
aS'0'
p168
aa(lp169
S'254'
p170
aS'Collection'
p171
aS'J8'
p172
aS'17'
p173
aS'1'
p174
aS'93'
p175
aS'4'
p176
aS'14'
p177
aS'62'
p178
aS'0'
p179
aS'0'
p180
aa(lp181
S'255'
p182
aS'Collection'
p183
aS'J8'
p184
aS'18'
p185
aS'1'
p186
aS'96'
p187
aS'4'
p188
aS'15'
p189
aS'63'
p190
aS'0'
p191
aS'0'
p192
aa(lp193
S'256'
p194
aS'Collection'
p195
aS'J14'
p196
aS'3'
p197
aS'2'
p198
aS'3'
p199
aS'3'
p200
aS'0'
p201
aS'32'
p202
aS'0'
p203
aS'0'
p204
aa(lp205
S'257'
p206
aS'Collection'
p207
aS'J14'
p208
aS'4'
p209
aS'2'
p210
aS'6'
p211
aS'3'
p212
aS'1'
p213
aS'33'
p214
aS'0'
p215
aS'0'
p216
aa(lp217
S'258'
p218
aS'Collection'
p219
aS'J14'
p220
aS'5'
p221
aS'2'
p222
aS'9'
p223
aS'3'
p224
aS'2'
p225
aS'34'
p226
aS'0'
p227
aS'0'
p228
aa(lp229
S'259'
p230
aS'Collection'
p231
aS'J14'
p232
aS'6'
p233
aS'2'
p234
aS'12'
p235
aS'3'
p236
aS'3'
p237
aS'35'
p238
aS'0'
p239
aS'0'
p240
aa(lp241
S'260'
p242
aS'Collection'
p243
aS'J14'
p244
aS'7'
p245
aS'2'
p246
aS'15'
p247
aS'3'
p248
aS'4'
p249
aS'36'
p250
aS'0'
p251
aS'0'
p252
aa(lp253
S'261'
p254
aS'Collection'
p255
aS'J14'
p256
aS'8'
p257
aS'2'
p258
aS'18'
p259
aS'3'
p260
aS'5'
p261
aS'37'
p262
aS'0'
p263
aS'0'
p264
aa(lp265
S'262'
p266
aS'Collection'
p267
aS'J14'
p268
aS'9'
p269
aS'2'
p270
aS'21'
p271
aS'3'
p272
aS'6'
p273
aS'38'
p274
aS'0'
p275
aS'0'
p276
aa(lp277
S'263'
p278
aS'Collection'
p279
aS'J14'
p280
aS'10'
p281
aS'2'
p282
aS'24'
p283
aS'3'
p284
aS'7'
p285
aS'39'
p286
aS'0'
p287
aS'0'
p288
aa(lp289
S'264'
p290
aS'Collection'
p291
aS'J14'
p292
aS'11'
p293
aS'2'
p294
aS'27'
p295
aS'3'
p296
aS'8'
p297
aS'40'
p298
aS'0'
p299
aS'0'
p300
aa(lp301
S'265'
p302
aS'Collection'
p303
aS'J14'
p304
aS'12'
p305
aS'2'
p306
aS'30'
p307
aS'3'
p308
aS'9'
p309
aS'41'
p310
aS'0'
p311
aS'0'
p312
aa(lp313
S'266'
p314
aS'Collection'
p315
aS'J14'
p316
aS'13'
p317
aS'2'
p318
aS'33'
p319
aS'3'
p320
aS'10'
p321
aS'42'
p322
aS'0'
p323
aS'0'
p324
aa(lp325
S'267'
p326
aS'Collection'
p327
aS'J14'
p328
aS'14'
p329
aS'2'
p330
aS'36'
p331
aS'3'
p332
aS'11'
p333
aS'43'
p334
aS'0'
p335
aS'0'
p336
aa(lp337
S'268'
p338
aS'Collection'
p339
aS'J14'
p340
aS'15'
p341
aS'2'
p342
aS'39'
p343
aS'3'
p344
aS'12'
p345
aS'44'
p346
aS'0'
p347
aS'0'
p348
aa(lp349
S'269'
p350
aS'Collection'
p351
aS'J14'
p352
aS'16'
p353
aS'2'
p354
aS'42'
p355
aS'3'
p356
aS'13'
p357
aS'45'
p358
aS'0'
p359
aS'0'
p360
aa(lp361
S'270'
p362
aS'Collection'
p363
aS'J14'
p364
aS'17'
p365
aS'2'
p366
aS'45'
p367
aS'3'
p368
aS'14'
p369
aS'46'
p370
aS'0'
p371
aS'0'
p372
aa(lp373
S'271'
p374
aS'Collection'
p375
aS'J14'
p376
aS'18'
p377
aS'2'
p378
aS'48'
p379
aS'3'
p380
aS'15'
p381
aS'47'
p382
aS'0'
p383
aS'0'
p384
aa(lp385
S'272'
p386
aS'Collection'
p387
aS'J20'
p388
aS'3'
p389
aS'2'
p390
aS'51'
p391
aS'7'
p392
aS'0'
p393
aS'96'
p394
aS'0'
p395
aS'0'
p396
aa(lp397
S'273'
p398
aS'Collection'
p399
aS'J20'
p400
aS'4'
p401
aS'2'
p402
aS'54'
p403
aS'7'
p404
aS'1'
p405
aS'97'
p406
aS'0'
p407
aS'0'
p408
aa(lp409
S'274'
p410
aS'Collection'
p411
aS'J20'
p412
aS'5'
p413
aS'2'
p414
aS'57'
p415
aS'7'
p416
aS'2'
p417
aS'98'
p418
aS'0'
p419
aS'0'
p420
aa(lp421
S'275'
p422
aS'Collection'
p423
aS'J20'
p424
aS'6'
p425
aS'2'
p426
aS'60'
p427
aS'7'
p428
aS'3'
p429
aS'99'
p430
aS'0'
p431
aS'0'
p432
aa(lp433
S'276'
p434
aS'Collection'
p435
aS'J20'
p436
aS'7'
p437
aS'2'
p438
aS'63'
p439
aS'7'
p440
aS'4'
p441
aS'100'
p442
aS'0'
p443
aS'0'
p444
aa(lp445
S'277'
p446
aS'Collection'
p447
aS'J20'
p448
aS'8'
p449
aS'2'
p450
aS'66'
p451
aS'7'
p452
aS'5'
p453
aS'101'
p454
aS'0'
p455
aS'0'
p456
aa(lp457
S'278'
p458
aS'Collection'
p459
aS'J20'
p460
aS'9'
p461
aS'2'
p462
aS'69'
p463
aS'7'
p464
aS'6'
p465
aS'102'
p466
aS'0'
p467
aS'0'
p468
aa(lp469
S'279'
p470
aS'Collection'
p471
aS'J20'
p472
aS'10'
p473
aS'2'
p474
aS'72'
p475
aS'7'
p476
aS'7'
p477
aS'103'
p478
aS'0'
p479
aS'0'
p480
aa(lp481
S'280'
p482
aS'Collection'
p483
aS'J20'
p484
aS'11'
p485
aS'2'
p486
aS'75'
p487
aS'7'
p488
aS'8'
p489
aS'104'
p490
aS'0'
p491
aS'0'
p492
aa(lp493
S'281'
p494
aS'Collection'
p495
aS'J20'
p496
aS'12'
p497
aS'2'
p498
aS'78'
p499
aS'7'
p500
aS'9'
p501
aS'105'
p502
aS'0'
p503
aS'0'
p504
aa(lp505
S'282'
p506
aS'Collection'
p507
aS'J20'
p508
aS'13'
p509
aS'2'
p510
aS'81'
p511
aS'7'
p512
aS'10'
p513
aS'106'
p514
aS'0'
p515
aS'0'
p516
aa(lp517
S'283'
p518
aS'Collection'
p519
aS'J20'
p520
aS'14'
p521
aS'2'
p522
aS'84'
p523
aS'7'
p524
aS'11'
p525
aS'107'
p526
aS'0'
p527
aS'0'
p528
aa(lp529
S'284'
p530
aS'Collection'
p531
aS'J20'
p532
aS'15'
p533
aS'2'
p534
aS'87'
p535
aS'7'
p536
aS'12'
p537
aS'108'
p538
aS'0'
p539
aS'0'
p540
aa(lp541
S'285'
p542
aS'Collection'
p543
aS'J20'
p544
aS'16'
p545
aS'2'
p546
aS'90'
p547
aS'7'
p548
aS'13'
p549
aS'109'
p550
aS'0'
p551
aS'0'
p552
aa(lp553
S'286'
p554
aS'Collection'
p555
aS'J20'
p556
aS'17'
p557
aS'2'
p558
aS'93'
p559
aS'7'
p560
aS'14'
p561
aS'110'
p562
aS'0'
p563
aS'0'
p564
aa(lp565
S'287'
p566
aS'Collection'
p567
aS'J20'
p568
aS'18'
p569
aS'2'
p570
aS'96'
p571
aS'7'
p572
aS'15'
p573
aS'111'
p574
aS'0'
p575
aS'0'
p576
aa(lp577
S'288'
p578
aS'Collection'
p579
aS'J8'
p580
aS'3'
p581
aS'1'
p582
aS'3'
p583
aS'4'
p584
aS'0'
p585
aS'48'
p586
aS'1'
p587
aS'0'
p588
aa(lp589
S'289'
p590
aS'Collection'
p591
aS'J8'
p592
aS'4'
p593
aS'1'
p594
aS'6'
p595
aS'4'
p596
aS'1'
p597
aS'49'
p598
aS'1'
p599
aS'0'
p600
aa(lp601
S'290'
p602
aS'Collection'
p603
aS'J8'
p604
aS'5'
p605
aS'1'
p606
aS'9'
p607
aS'4'
p608
aS'2'
p609
aS'50'
p610
aS'1'
p611
aS'0'
p612
aa(lp613
S'291'
p614
aS'Collection'
p615
aS'J8'
p616
aS'6'
p617
aS'1'
p618
aS'12'
p619
aS'4'
p620
aS'3'
p621
aS'51'
p622
aS'1'
p623
aS'0'
p624
aa(lp625
S'292'
p626
aS'Collection'
p627
aS'J8'
p628
aS'7'
p629
aS'1'
p630
aS'15'
p631
aS'4'
p632
aS'4'
p633
aS'52'
p634
aS'1'
p635
aS'0'
p636
aa(lp637
S'293'
p638
aS'Collection'
p639
aS'J8'
p640
aS'8'
p641
aS'1'
p642
aS'18'
p643
aS'4'
p644
aS'5'
p645
aS'53'
p646
aS'1'
p647
aS'0'
p648
aa(lp649
S'294'
p650
aS'Collection'
p651
aS'J8'
p652
aS'9'
p653
aS'1'
p654
aS'21'
p655
aS'4'
p656
aS'6'
p657
aS'54'
p658
aS'1'
p659
aS'0'
p660
aa(lp661
S'295'
p662
aS'Collection'
p663
aS'J8'
p664
aS'10'
p665
aS'1'
p666
aS'24'
p667
aS'4'
p668
aS'7'
p669
aS'55'
p670
aS'1'
p671
aS'0'
p672
aa(lp673
S'296'
p674
aS'Collection'
p675
aS'J8'
p676
aS'11'
p677
aS'1'
p678
aS'27'
p679
aS'4'
p680
aS'8'
p681
aS'56'
p682
aS'1'
p683
aS'0'
p684
aa(lp685
S'297'
p686
aS'Collection'
p687
aS'J8'
p688
aS'12'
p689
aS'1'
p690
aS'30'
p691
aS'4'
p692
aS'9'
p693
aS'57'
p694
aS'1'
p695
aS'0'
p696
aa(lp697
S'298'
p698
aS'Collection'
p699
aS'J8'
p700
aS'13'
p701
aS'1'
p702
aS'33'
p703
aS'4'
p704
aS'10'
p705
aS'58'
p706
aS'1'
p707
aS'0'
p708
aa(lp709
S'299'
p710
aS'Collection'
p711
aS'J8'
p712
aS'14'
p713
aS'1'
p714
aS'36'
p715
aS'4'
p716
aS'11'
p717
aS'59'
p718
aS'1'
p719
aS'0'
p720
aa(lp721
S'300'
p722
aS'Collection'
p723
aS'J8'
p724
aS'15'
p725
aS'1'
p726
aS'39'
p727
aS'4'
p728
aS'12'
p729
aS'60'
p730
aS'1'
p731
aS'0'
p732
aa(lp733
S'301'
p734
aS'Collection'
p735
aS'J8'
p736
aS'16'
p737
aS'1'
p738
aS'42'
p739
aS'4'
p740
aS'13'
p741
aS'61'
p742
aS'1'
p743
aS'0'
p744
aa(lp745
S'302'
p746
aS'Collection'
p747
aS'J8'
p748
aS'17'
p749
aS'1'
p750
aS'45'
p751
aS'4'
p752
aS'14'
p753
aS'62'
p754
aS'1'
p755
aS'0'
p756
aa(lp757
S'303'
p758
aS'Collection'
p759
aS'J8'
p760
aS'18'
p761
aS'1'
p762
aS'48'
p763
aS'4'
p764
aS'15'
p765
aS'63'
p766
aS'1'
p767
aS'0'
p768
aa(lp769
S'304'
p770
aS'Collection'
p771
aS'J14'
p772
aS'3'
p773
aS'1'
p774
aS'51'
p775
aS'3'
p776
aS'0'
p777
aS'32'
p778
aS'1'
p779
aS'0'
p780
aa(lp781
S'305'
p782
aS'Collection'
p783
aS'J14'
p784
aS'4'
p785
aS'1'
p786
aS'54'
p787
aS'3'
p788
aS'1'
p789
aS'33'
p790
aS'1'
p791
aS'0'
p792
aa(lp793
S'306'
p794
aS'Collection'
p795
aS'J14'
p796
aS'5'
p797
aS'1'
p798
aS'57'
p799
aS'3'
p800
aS'2'
p801
aS'34'
p802
aS'1'
p803
aS'0'
p804
aa(lp805
S'307'
p806
aS'Collection'
p807
aS'J14'
p808
aS'6'
p809
aS'1'
p810
aS'60'
p811
aS'3'
p812
aS'3'
p813
aS'35'
p814
aS'1'
p815
aS'0'
p816
aa(lp817
S'308'
p818
aS'Collection'
p819
aS'J14'
p820
aS'7'
p821
aS'1'
p822
aS'63'
p823
aS'3'
p824
aS'4'
p825
aS'36'
p826
aS'1'
p827
aS'0'
p828
aa(lp829
S'309'
p830
aS'Collection'
p831
aS'J14'
p832
aS'8'
p833
aS'1'
p834
aS'66'
p835
aS'3'
p836
aS'5'
p837
aS'37'
p838
aS'1'
p839
aS'0'
p840
aa(lp841
S'310'
p842
aS'Collection'
p843
aS'J14'
p844
aS'9'
p845
aS'1'
p846
aS'69'
p847
aS'3'
p848
aS'6'
p849
aS'38'
p850
aS'1'
p851
aS'0'
p852
aa(lp853
S'311'
p854
aS'Collection'
p855
aS'J14'
p856
aS'10'
p857
aS'1'
p858
aS'72'
p859
aS'3'
p860
aS'7'
p861
aS'39'
p862
aS'1'
p863
aS'0'
p864
aa(lp865
S'312'
p866
aS'Collection'
p867
aS'J14'
p868
aS'11'
p869
aS'1'
p870
aS'75'
p871
aS'3'
p872
aS'8'
p873
aS'40'
p874
aS'1'
p875
aS'0'
p876
aa(lp877
S'313'
p878
aS'Collection'
p879
aS'J14'
p880
aS'12'
p881
aS'1'
p882
aS'78'
p883
aS'3'
p884
aS'9'
p885
aS'41'
p886
aS'1'
p887
aS'0'
p888
aa(lp889
S'314'
p890
aS'Collection'
p891
aS'J14'
p892
aS'13'
p893
aS'1'
p894
aS'81'
p895
aS'3'
p896
aS'10'
p897
aS'42'
p898
aS'1'
p899
aS'0'
p900
aa(lp901
S'315'
p902
aS'Collection'
p903
aS'J14'
p904
aS'14'
p905
aS'1'
p906
aS'84'
p907
aS'3'
p908
aS'11'
p909
aS'43'
p910
aS'1'
p911
aS'0'
p912
aa(lp913
S'316'
p914
aS'Collection'
p915
aS'J14'
p916
aS'15'
p917
aS'1'
p918
aS'87'
p919
aS'3'
p920
aS'12'
p921
aS'44'
p922
aS'1'
p923
aS'0'
p924
aa(lp925
S'317'
p926
aS'Collection'
p927
aS'J14'
p928
aS'16'
p929
aS'1'
p930
aS'90'
p931
aS'3'
p932
aS'13'
p933
aS'45'
p934
aS'1'
p935
aS'0'
p936
aa(lp937
S'318'
p938
aS'Collection'
p939
aS'J14'
p940
aS'17'
p941
aS'1'
p942
aS'93'
p943
aS'3'
p944
aS'14'
p945
aS'46'
p946
aS'1'
p947
aS'0'
p948
aa(lp949
S'319'
p950
aS'Collection'
p951
aS'J14'
p952
aS'18'
p953
aS'1'
p954
aS'96'
p955
aS'3'
p956
aS'15'
p957
aS'47'
p958
aS'1'
p959
aS'0'
p960
aa(lp961
S'0'
p962
aS'Induction'
p963
aS'J5'
p964
aS'3'
p965
aS'1'
p966
aS'1'
p967
aS'2'
p968
aS'15'
p969
aS'31'
p970
aS'1'
p971
aS'0'
p972
aa(lp973
S'1'
p974
aS'Induction'
p975
aS'J5'
p976
aS'4'
p977
aS'1'
p978
aS'4'
p979
aS'2'
p980
aS'14'
p981
aS'30'
p982
aS'1'
p983
aS'0'
p984
aa(lp985
S'2'
p986
aS'Induction'
p987
aS'J5'
p988
aS'5'
p989
aS'1'
p990
aS'7'
p991
aS'2'
p992
aS'13'
p993
aS'29'
p994
aS'1'
p995
aS'0'
p996
aa(lp997
S'3'
p998
aS'Induction'
p999
aS'J5'
p1000
aS'6'
p1001
aS'1'
p1002
aS'10'
p1003
aS'2'
p1004
aS'12'
p1005
aS'28'
p1006
aS'1'
p1007
aS'0'
p1008
aa(lp1009
S'4'
p1010
aS'Induction'
p1011
aS'J5'
p1012
aS'7'
p1013
aS'1'
p1014
aS'13'
p1015
aS'2'
p1016
aS'11'
p1017
aS'27'
p1018
aS'1'
p1019
aS'0'
p1020
aa(lp1021
S'5'
p1022
aS'Induction'
p1023
aS'J5'
p1024
aS'8'
p1025
aS'1'
p1026
aS'16'
p1027
aS'2'
p1028
aS'10'
p1029
aS'26'
p1030
aS'1'
p1031
aS'0'
p1032
aa(lp1033
S'6'
p1034
aS'Induction'
p1035
aS'J5'
p1036
aS'9'
p1037
aS'1'
p1038
aS'19'
p1039
aS'2'
p1040
aS'9'
p1041
aS'25'
p1042
aS'1'
p1043
aS'0'
p1044
aa(lp1045
S'7'
p1046
aS'Induction'
p1047
aS'J5'
p1048
aS'10'
p1049
aS'1'
p1050
aS'22'
p1051
aS'2'
p1052
aS'8'
p1053
aS'24'
p1054
aS'1'
p1055
aS'0'
p1056
aa(lp1057
S'8'
p1058
aS'Induction'
p1059
aS'J5'
p1060
aS'11'
p1061
aS'1'
p1062
aS'25'
p1063
aS'2'
p1064
aS'7'
p1065
aS'23'
p1066
aS'1'
p1067
aS'0'
p1068
aa(lp1069
S'9'
p1070
aS'Induction'
p1071
aS'J5'
p1072
aS'12'
p1073
aS'1'
p1074
aS'28'
p1075
aS'2'
p1076
aS'6'
p1077
aS'22'
p1078
aS'1'
p1079
aS'0'
p1080
aa(lp1081
S'10'
p1082
aS'Induction'
p1083
aS'J5'
p1084
aS'13'
p1085
aS'1'
p1086
aS'31'
p1087
aS'2'
p1088
aS'5'
p1089
aS'21'
p1090
aS'1'
p1091
aS'0'
p1092
aa(lp1093
S'11'
p1094
aS'Induction'
p1095
aS'J5'
p1096
aS'14'
p1097
aS'1'
p1098
aS'34'
p1099
aS'2'
p1100
aS'4'
p1101
aS'20'
p1102
aS'1'
p1103
aS'0'
p1104
aa(lp1105
S'12'
p1106
aS'Induction'
p1107
aS'J5'
p1108
aS'15'
p1109
aS'1'
p1110
aS'37'
p1111
aS'2'
p1112
aS'3'
p1113
aS'19'
p1114
aS'1'
p1115
aS'0'
p1116
aa(lp1117
S'13'
p1118
aS'Induction'
p1119
aS'J5'
p1120
aS'16'
p1121
aS'1'
p1122
aS'40'
p1123
aS'2'
p1124
aS'2'
p1125
aS'18'
p1126
aS'1'
p1127
aS'0'
p1128
aa(lp1129
S'14'
p1130
aS'Induction'
p1131
aS'J5'
p1132
aS'17'
p1133
aS'1'
p1134
aS'43'
p1135
aS'2'
p1136
aS'1'
p1137
aS'17'
p1138
aS'1'
p1139
aS'0'
p1140
aa(lp1141
S'15'
p1142
aS'Induction'
p1143
aS'J5'
p1144
aS'18'
p1145
aS'1'
p1146
aS'46'
p1147
aS'2'
p1148
aS'0'
p1149
aS'16'
p1150
aS'1'
p1151
aS'0'
p1152
aa(lp1153
S'16'
p1154
aS'Induction'
p1155
aS'J11'
p1156
aS'3'
p1157
aS'1'
p1158
aS'49'
p1159
aS'1'
p1160
aS'15'
p1161
aS'15'
p1162
aS'1'
p1163
aS'0'
p1164
aa(lp1165
S'17'
p1166
aS'Induction'
p1167
aS'J11'
p1168
aS'4'
p1169
aS'1'
p1170
aS'52'
p1171
aS'1'
p1172
aS'14'
p1173
aS'14'
p1174
aS'1'
p1175
aS'0'
p1176
aa(lp1177
S'18'
p1178
aS'Induction'
p1179
aS'J11'
p1180
aS'5'
p1181
aS'1'
p1182
aS'55'
p1183
aS'1'
p1184
aS'13'
p1185
aS'13'
p1186
aS'1'
p1187
aS'0'
p1188
aa(lp1189
S'19'
p1190
aS'Induction'
p1191
aS'J11'
p1192
aS'6'
p1193
aS'1'
p1194
aS'58'
p1195
aS'1'
p1196
aS'12'
p1197
aS'12'
p1198
aS'1'
p1199
aS'0'
p1200
aa(lp1201
S'20'
p1202
aS'Induction'
p1203
aS'J11'
p1204
aS'7'
p1205
aS'1'
p1206
aS'61'
p1207
aS'1'
p1208
aS'11'
p1209
aS'11'
p1210
aS'1'
p1211
aS'0'
p1212
aa(lp1213
S'21'
p1214
aS'Induction'
p1215
aS'J11'
p1216
aS'8'
p1217
aS'1'
p1218
aS'64'
p1219
aS'1'
p1220
aS'10'
p1221
aS'10'
p1222
aS'1'
p1223
aS'0'
p1224
aa(lp1225
S'22'
p1226
aS'Induction'
p1227
aS'J11'
p1228
aS'9'
p1229
aS'1'
p1230
aS'67'
p1231
aS'1'
p1232
aS'9'
p1233
aS'9'
p1234
aS'1'
p1235
aS'0'
p1236
aa(lp1237
S'23'
p1238
aS'Induction'
p1239
aS'J11'
p1240
aS'10'
p1241
aS'1'
p1242
aS'70'
p1243
aS'1'
p1244
aS'8'
p1245
aS'8'
p1246
aS'1'
p1247
aS'0'
p1248
aa(lp1249
S'24'
p1250
aS'Induction'
p1251
aS'J11'
p1252
aS'11'
p1253
aS'1'
p1254
aS'73'
p1255
aS'1'
p1256
aS'7'
p1257
aS'7'
p1258
aS'1'
p1259
aS'0'
p1260
aa(lp1261
S'25'
p1262
aS'Induction'
p1263
aS'J11'
p1264
aS'12'
p1265
aS'1'
p1266
aS'76'
p1267
aS'1'
p1268
aS'6'
p1269
aS'6'
p1270
aS'1'
p1271
aS'0'
p1272
aa(lp1273
S'26'
p1274
aS'Induction'
p1275
aS'J11'
p1276
aS'13'
p1277
aS'1'
p1278
aS'79'
p1279
aS'1'
p1280
aS'5'
p1281
aS'5'
p1282
aS'1'
p1283
aS'0'
p1284
aa(lp1285
S'27'
p1286
aS'Induction'
p1287
aS'J11'
p1288
aS'14'
p1289
aS'1'
p1290
aS'82'
p1291
aS'1'
p1292
aS'4'
p1293
aS'4'
p1294
aS'1'
p1295
aS'0'
p1296
aa(lp1297
S'28'
p1298
aS'Induction'
p1299
aS'J11'
p1300
aS'15'
p1301
aS'1'
p1302
aS'85'
p1303
aS'1'
p1304
aS'3'
p1305
aS'3'
p1306
aS'1'
p1307
aS'0'
p1308
aa(lp1309
S'29'
p1310
aS'Induction'
p1311
aS'J11'
p1312
aS'16'
p1313
aS'1'
p1314
aS'88'
p1315
aS'1'
p1316
aS'2'
p1317
aS'2'
p1318
aS'1'
p1319
aS'0'
p1320
aa(lp1321
S'30'
p1322
aS'Induction'
p1323
aS'J11'
p1324
aS'17'
p1325
aS'1'
p1326
aS'91'
p1327
aS'1'
p1328
aS'1'
p1329
aS'0'
p1330
aS'1'
p1331
aS'0'
p1332
aa(lp1333
S'31'
p1334
aS'Induction'
p1335
aS'J11'
p1336
aS'18'
p1337
aS'1'
p1338
aS'94'
p1339
aS'1'
p1340
aS'0'
p1341
aS'1'
p1342
aS'1'
p1343
aS'0'
p1344
aa(lp1345
S'320'
p1346
aS'Collection'
p1347
aS'J20'
p1348
aS'3'
p1349
aS'2'
p1350
aS'3'
p1351
aS'7'
p1352
aS'0'
p1353
aS'96'
p1354
aS'1'
p1355
aS'0'
p1356
aa(lp1357
S'321'
p1358
aS'Collection'
p1359
aS'J20'
p1360
aS'4'
p1361
aS'2'
p1362
aS'6'
p1363
aS'7'
p1364
aS'1'
p1365
aS'97'
p1366
aS'1'
p1367
aS'0'
p1368
aa(lp1369
S'322'
p1370
aS'Collection'
p1371
aS'J20'
p1372
aS'5'
p1373
aS'2'
p1374
aS'9'
p1375
aS'7'
p1376
aS'2'
p1377
aS'98'
p1378
aS'1'
p1379
aS'0'
p1380
aa(lp1381
S'323'
p1382
aS'Collection'
p1383
aS'J20'
p1384
aS'6'
p1385
aS'2'
p1386
aS'12'
p1387
aS'7'
p1388
aS'3'
p1389
aS'99'
p1390
aS'1'
p1391
aS'0'
p1392
aa(lp1393
S'324'
p1394
aS'Collection'
p1395
aS'J20'
p1396
aS'7'
p1397
aS'2'
p1398
aS'15'
p1399
aS'7'
p1400
aS'4'
p1401
aS'100'
p1402
aS'1'
p1403
aS'0'
p1404
aa(lp1405
S'325'
p1406
aS'Collection'
p1407
aS'J20'
p1408
aS'8'
p1409
aS'2'
p1410
aS'18'
p1411
aS'7'
p1412
aS'5'
p1413
aS'101'
p1414
aS'1'
p1415
aS'0'
p1416
aa(lp1417
S'326'
p1418
aS'Collection'
p1419
aS'J20'
p1420
aS'9'
p1421
aS'2'
p1422
aS'21'
p1423
aS'7'
p1424
aS'6'
p1425
aS'102'
p1426
aS'1'
p1427
aS'0'
p1428
aa(lp1429
S'327'
p1430
aS'Collection'
p1431
aS'J20'
p1432
aS'10'
p1433
aS'2'
p1434
aS'24'
p1435
aS'7'
p1436
aS'7'
p1437
aS'103'
p1438
aS'1'
p1439
aS'0'
p1440
aa(lp1441
S'328'
p1442
aS'Collection'
p1443
aS'J20'
p1444
aS'11'
p1445
aS'2'
p1446
aS'27'
p1447
aS'7'
p1448
aS'8'
p1449
aS'104'
p1450
aS'1'
p1451
aS'0'
p1452
aa(lp1453
S'329'
p1454
aS'Collection'
p1455
aS'J20'
p1456
aS'12'
p1457
aS'2'
p1458
aS'30'
p1459
aS'7'
p1460
aS'9'
p1461
aS'105'
p1462
aS'1'
p1463
aS'0'
p1464
aa(lp1465
S'330'
p1466
aS'Collection'
p1467
aS'J20'
p1468
aS'13'
p1469
aS'2'
p1470
aS'33'
p1471
aS'7'
p1472
aS'10'
p1473
aS'106'
p1474
aS'1'
p1475
aS'0'
p1476
aa(lp1477
S'331'
p1478
aS'Collection'
p1479
aS'J20'
p1480
aS'14'
p1481
aS'2'
p1482
aS'36'
p1483
aS'7'
p1484
aS'11'
p1485
aS'107'
p1486
aS'1'
p1487
aS'0'
p1488
aa(lp1489
S'332'
p1490
aS'Collection'
p1491
aS'J20'
p1492
aS'15'
p1493
aS'2'
p1494
aS'39'
p1495
aS'7'
p1496
aS'12'
p1497
aS'108'
p1498
aS'1'
p1499
aS'0'
p1500
aa(lp1501
S'333'
p1502
aS'Collection'
p1503
aS'J20'
p1504
aS'16'
p1505
aS'2'
p1506
aS'42'
p1507
aS'7'
p1508
aS'13'
p1509
aS'109'
p1510
aS'1'
p1511
aS'0'
p1512
aa(lp1513
S'334'
p1514
aS'Collection'
p1515
aS'J20'
p1516
aS'17'
p1517
aS'2'
p1518
aS'45'
p1519
aS'7'
p1520
aS'14'
p1521
aS'110'
p1522
aS'1'
p1523
aS'0'
p1524
aa(lp1525
S'335'
p1526
aS'Collection'
p1527
aS'J20'
p1528
aS'18'
p1529
aS'2'
p1530
aS'48'
p1531
aS'7'
p1532
aS'15'
p1533
aS'111'
p1534
aS'1'
p1535
aS'0'
p1536
aa(lp1537
S'336'
p1538
aS'Collection'
p1539
aS'J26'
p1540
aS'3'
p1541
aS'2'
p1542
aS'51'
p1543
aS'8'
p1544
aS'0'
p1545
aS'112'
p1546
aS'1'
p1547
aS'0'
p1548
aa(lp1549
S'337'
p1550
aS'Collection'
p1551
aS'J26'
p1552
aS'4'
p1553
aS'2'
p1554
aS'54'
p1555
aS'8'
p1556
aS'1'
p1557
aS'113'
p1558
aS'1'
p1559
aS'0'
p1560
aa(lp1561
S'338'
p1562
aS'Collection'
p1563
aS'J26'
p1564
aS'5'
p1565
aS'2'
p1566
aS'57'
p1567
aS'8'
p1568
aS'2'
p1569
aS'114'
p1570
aS'1'
p1571
aS'0'
p1572
aa(lp1573
S'339'
p1574
aS'Collection'
p1575
aS'J26'
p1576
aS'6'
p1577
aS'2'
p1578
aS'60'
p1579
aS'8'
p1580
aS'3'
p1581
aS'115'
p1582
aS'1'
p1583
aS'0'
p1584
aa(lp1585
S'340'
p1586
aS'Collection'
p1587
aS'J26'
p1588
aS'7'
p1589
aS'2'
p1590
aS'63'
p1591
aS'8'
p1592
aS'4'
p1593
aS'116'
p1594
aS'1'
p1595
aS'0'
p1596
aa(lp1597
S'341'
p1598
aS'Collection'
p1599
aS'J26'
p1600
aS'8'
p1601
aS'2'
p1602
aS'66'
p1603
aS'8'
p1604
aS'5'
p1605
aS'117'
p1606
aS'1'
p1607
aS'0'
p1608
aa(lp1609
S'342'
p1610
aS'Collection'
p1611
aS'J26'
p1612
aS'9'
p1613
aS'2'
p1614
aS'69'
p1615
aS'8'
p1616
aS'6'
p1617
aS'118'
p1618
aS'1'
p1619
aS'0'
p1620
aa(lp1621
S'343'
p1622
aS'Collection'
p1623
aS'J26'
p1624
aS'10'
p1625
aS'2'
p1626
aS'72'
p1627
aS'8'
p1628
aS'7'
p1629
aS'119'
p1630
aS'1'
p1631
aS'0'
p1632
aa(lp1633
S'344'
p1634
aS'Collection'
p1635
aS'J26'
p1636
aS'11'
p1637
aS'2'
p1638
aS'75'
p1639
aS'8'
p1640
aS'8'
p1641
aS'120'
p1642
aS'1'
p1643
aS'0'
p1644
aa(lp1645
S'345'
p1646
aS'Collection'
p1647
aS'J26'
p1648
aS'12'
p1649
aS'2'
p1650
aS'78'
p1651
aS'8'
p1652
aS'9'
p1653
aS'121'
p1654
aS'1'
p1655
aS'0'
p1656
aa(lp1657
S'346'
p1658
aS'Collection'
p1659
aS'J26'
p1660
aS'13'
p1661
aS'2'
p1662
aS'81'
p1663
aS'8'
p1664
aS'10'
p1665
aS'122'
p1666
aS'1'
p1667
aS'0'
p1668
aa(lp1669
S'347'
p1670
aS'Collection'
p1671
aS'J26'
p1672
aS'14'
p1673
aS'2'
p1674
aS'84'
p1675
aS'8'
p1676
aS'11'
p1677
aS'123'
p1678
aS'1'
p1679
aS'0'
p1680
aa(lp1681
S'348'
p1682
aS'Collection'
p1683
aS'J26'
p1684
aS'15'
p1685
aS'2'
p1686
aS'87'
p1687
aS'8'
p1688
aS'12'
p1689
aS'124'
p1690
aS'1'
p1691
aS'0'
p1692
aa(lp1693
S'349'
p1694
aS'Collection'
p1695
aS'J26'
p1696
aS'16'
p1697
aS'2'
p1698
aS'90'
p1699
aS'8'
p1700
aS'13'
p1701
aS'125'
p1702
aS'1'
p1703
aS'0'
p1704
aa(lp1705
S'350'
p1706
aS'Collection'
p1707
aS'J26'
p1708
aS'17'
p1709
aS'2'
p1710
aS'93'
p1711
aS'8'
p1712
aS'14'
p1713
aS'126'
p1714
aS'1'
p1715
aS'0'
p1716
aa(lp1717
S'351'
p1718
aS'Collection'
p1719
aS'J26'
p1720
aS'18'
p1721
aS'2'
p1722
aS'96'
p1723
aS'8'
p1724
aS'15'
p1725
aS'127'
p1726
aS'1'
p1727
aS'0'
p1728
aa(lp1729
S'32'
p1730
aS'Induction'
p1731
aS'J17'
p1732
aS'3'
p1733
aS'2'
p1734
aS'1'
p1735
aS'5'
p1736
aS'15'
p1737
aS'79'
p1738
aS'1'
p1739
aS'0'
p1740
aa(lp1741
S'33'
p1742
aS'Induction'
p1743
aS'J17'
p1744
aS'4'
p1745
aS'2'
p1746
aS'4'
p1747
aS'5'
p1748
aS'14'
p1749
aS'78'
p1750
aS'1'
p1751
aS'0'
p1752
aa(lp1753
S'34'
p1754
aS'Induction'
p1755
aS'J17'
p1756
aS'5'
p1757
aS'2'
p1758
aS'7'
p1759
aS'5'
p1760
aS'13'
p1761
aS'77'
p1762
aS'1'
p1763
aS'0'
p1764
aa(lp1765
S'35'
p1766
aS'Induction'
p1767
aS'J17'
p1768
aS'6'
p1769
aS'2'
p1770
aS'10'
p1771
aS'5'
p1772
aS'12'
p1773
aS'76'
p1774
aS'1'
p1775
aS'0'
p1776
aa(lp1777
S'36'
p1778
aS'Induction'
p1779
aS'J17'
p1780
aS'7'
p1781
aS'2'
p1782
aS'13'
p1783
aS'5'
p1784
aS'11'
p1785
aS'75'
p1786
aS'1'
p1787
aS'0'
p1788
aa(lp1789
S'37'
p1790
aS'Induction'
p1791
aS'J17'
p1792
aS'8'
p1793
aS'2'
p1794
aS'16'
p1795
aS'5'
p1796
aS'10'
p1797
aS'74'
p1798
aS'1'
p1799
aS'0'
p1800
aa(lp1801
S'38'
p1802
aS'Induction'
p1803
aS'J17'
p1804
aS'9'
p1805
aS'2'
p1806
aS'19'
p1807
aS'5'
p1808
aS'9'
p1809
aS'73'
p1810
aS'1'
p1811
aS'0'
p1812
aa(lp1813
S'39'
p1814
aS'Induction'
p1815
aS'J17'
p1816
aS'10'
p1817
aS'2'
p1818
aS'22'
p1819
aS'5'
p1820
aS'8'
p1821
aS'72'
p1822
aS'1'
p1823
aS'0'
p1824
aa(lp1825
S'40'
p1826
aS'Induction'
p1827
aS'J17'
p1828
aS'11'
p1829
aS'2'
p1830
aS'25'
p1831
aS'5'
p1832
aS'7'
p1833
aS'71'
p1834
aS'1'
p1835
aS'0'
p1836
aa(lp1837
S'41'
p1838
aS'Induction'
p1839
aS'J17'
p1840
aS'12'
p1841
aS'2'
p1842
aS'28'
p1843
aS'5'
p1844
aS'6'
p1845
aS'70'
p1846
aS'1'
p1847
aS'0'
p1848
aa(lp1849
S'42'
p1850
aS'Induction'
p1851
aS'J17'
p1852
aS'13'
p1853
aS'2'
p1854
aS'31'
p1855
aS'5'
p1856
aS'5'
p1857
aS'69'
p1858
aS'1'
p1859
aS'0'
p1860
aa(lp1861
S'43'
p1862
aS'Induction'
p1863
aS'J17'
p1864
aS'14'
p1865
aS'2'
p1866
aS'34'
p1867
aS'5'
p1868
aS'4'
p1869
aS'68'
p1870
aS'1'
p1871
aS'0'
p1872
aa(lp1873
S'44'
p1874
aS'Induction'
p1875
aS'J17'
p1876
aS'15'
p1877
aS'2'
p1878
aS'37'
p1879
aS'5'
p1880
aS'3'
p1881
aS'67'
p1882
aS'1'
p1883
aS'0'
p1884
aa(lp1885
S'45'
p1886
aS'Induction'
p1887
aS'J17'
p1888
aS'16'
p1889
aS'2'
p1890
aS'40'
p1891
aS'5'
p1892
aS'2'
p1893
aS'66'
p1894
aS'1'
p1895
aS'0'
p1896
aa(lp1897
S'46'
p1898
aS'Induction'
p1899
aS'J17'
p1900
aS'17'
p1901
aS'2'
p1902
aS'43'
p1903
aS'5'
p1904
aS'1'
p1905
aS'65'
p1906
aS'1'
p1907
aS'0'
p1908
aa(lp1909
S'47'
p1910
aS'Induction'
p1911
aS'J17'
p1912
aS'18'
p1913
aS'2'
p1914
aS'46'
p1915
aS'5'
p1916
aS'0'
p1917
aS'64'
p1918
aS'1'
p1919
aS'0'
p1920
aa(lp1921
S'48'
p1922
aS'Induction'
p1923
aS'J23'
p1924
aS'3'
p1925
aS'2'
p1926
aS'49'
p1927
aS'6'
p1928
aS'15'
p1929
aS'95'
p1930
aS'1'
p1931
aS'0'
p1932
aa(lp1933
S'49'
p1934
aS'Induction'
p1935
aS'J23'
p1936
aS'4'
p1937
aS'2'
p1938
aS'52'
p1939
aS'6'
p1940
aS'14'
p1941
aS'94'
p1942
aS'1'
p1943
aS'0'
p1944
aa(lp1945
S'50'
p1946
aS'Induction'
p1947
aS'J23'
p1948
aS'5'
p1949
aS'2'
p1950
aS'55'
p1951
aS'6'
p1952
aS'13'
p1953
aS'93'
p1954
aS'1'
p1955
aS'0'
p1956
aa(lp1957
S'51'
p1958
aS'Induction'
p1959
aS'J23'
p1960
aS'6'
p1961
aS'2'
p1962
aS'58'
p1963
aS'6'
p1964
aS'12'
p1965
aS'92'
p1966
aS'1'
p1967
aS'0'
p1968
aa(lp1969
S'52'
p1970
aS'Induction'
p1971
aS'J23'
p1972
aS'7'
p1973
aS'2'
p1974
aS'61'
p1975
aS'6'
p1976
aS'11'
p1977
aS'91'
p1978
aS'1'
p1979
aS'0'
p1980
aa(lp1981
S'53'
p1982
aS'Induction'
p1983
aS'J23'
p1984
aS'8'
p1985
aS'2'
p1986
aS'64'
p1987
aS'6'
p1988
aS'10'
p1989
aS'90'
p1990
aS'1'
p1991
aS'0'
p1992
aa(lp1993
S'54'
p1994
aS'Induction'
p1995
aS'J23'
p1996
aS'9'
p1997
aS'2'
p1998
aS'67'
p1999
aS'6'
p2000
aS'9'
p2001
aS'89'
p2002
aS'1'
p2003
aS'0'
p2004
aa(lp2005
S'55'
p2006
aS'Induction'
p2007
aS'J23'
p2008
aS'10'
p2009
aS'2'
p2010
aS'70'
p2011
aS'6'
p2012
aS'8'
p2013
aS'88'
p2014
aS'1'
p2015
aS'0'
p2016
aa(lp2017
S'56'
p2018
aS'Induction'
p2019
aS'J23'
p2020
aS'11'
p2021
aS'2'
p2022
aS'73'
p2023
aS'6'
p2024
aS'7'
p2025
aS'87'
p2026
aS'1'
p2027
aS'0'
p2028
aa(lp2029
S'57'
p2030
aS'Induction'
p2031
aS'J23'
p2032
aS'12'
p2033
aS'2'
p2034
aS'76'
p2035
aS'6'
p2036
aS'6'
p2037
aS'86'
p2038
aS'1'
p2039
aS'0'
p2040
aa(lp2041
S'58'
p2042
aS'Induction'
p2043
aS'J23'
p2044
aS'13'
p2045
aS'2'
p2046
aS'79'
p2047
aS'6'
p2048
aS'5'
p2049
aS'85'
p2050
aS'1'
p2051
aS'0'
p2052
aa(lp2053
S'59'
p2054
aS'Induction'
p2055
aS'J23'
p2056
aS'14'
p2057
aS'2'
p2058
aS'82'
p2059
aS'6'
p2060
aS'4'
p2061
aS'84'
p2062
aS'1'
p2063
aS'0'
p2064
aa(lp2065
S'60'
p2066
aS'Induction'
p2067
aS'J23'
p2068
aS'15'
p2069
aS'2'
p2070
aS'85'
p2071
aS'6'
p2072
aS'3'
p2073
aS'83'
p2074
aS'1'
p2075
aS'0'
p2076
aa(lp2077
S'61'
p2078
aS'Induction'
p2079
aS'J23'
p2080
aS'16'
p2081
aS'2'
p2082
aS'88'
p2083
aS'6'
p2084
aS'2'
p2085
aS'82'
p2086
aS'1'
p2087
aS'0'
p2088
aa(lp2089
S'62'
p2090
aS'Induction'
p2091
aS'J23'
p2092
aS'17'
p2093
aS'2'
p2094
aS'91'
p2095
aS'6'
p2096
aS'1'
p2097
aS'81'
p2098
aS'1'
p2099
aS'0'
p2100
aa(lp2101
S'63'
p2102
aS'Induction'
p2103
aS'J23'
p2104
aS'18'
p2105
aS'2'
p2106
aS'94'
p2107
aS'6'
p2108
aS'0'
p2109
aS'80'
p2110
aS'1'
p2111
aS'0'
p2112
aa(lp2113
S'352'
p2114
aS'Collection'
p2115
aS'J7'
p2116
aS'3'
p2117
aS'1'
p2118
aS'3'
p2119
aS'4'
p2120
aS'0'
p2121
aS'48'
p2122
aS'2'
p2123
aS'0'
p2124
aa(lp2125
S'353'
p2126
aS'Collection'
p2127
aS'J7'
p2128
aS'4'
p2129
aS'1'
p2130
aS'6'
p2131
aS'4'
p2132
aS'1'
p2133
aS'49'
p2134
aS'2'
p2135
aS'0'
p2136
aa(lp2137
S'354'
p2138
aS'Collection'
p2139
aS'J7'
p2140
aS'5'
p2141
aS'1'
p2142
aS'9'
p2143
aS'4'
p2144
aS'2'
p2145
aS'50'
p2146
aS'2'
p2147
aS'0'
p2148
aa(lp2149
S'355'
p2150
aS'Collection'
p2151
aS'J7'
p2152
aS'6'
p2153
aS'1'
p2154
aS'12'
p2155
aS'4'
p2156
aS'3'
p2157
aS'51'
p2158
aS'2'
p2159
aS'0'
p2160
aa(lp2161
S'356'
p2162
aS'Collection'
p2163
aS'J7'
p2164
aS'7'
p2165
aS'1'
p2166
aS'15'
p2167
aS'4'
p2168
aS'4'
p2169
aS'52'
p2170
aS'2'
p2171
aS'0'
p2172
aa(lp2173
S'357'
p2174
aS'Collection'
p2175
aS'J7'
p2176
aS'8'
p2177
aS'1'
p2178
aS'18'
p2179
aS'4'
p2180
aS'5'
p2181
aS'53'
p2182
aS'2'
p2183
aS'0'
p2184
aa(lp2185
S'358'
p2186
aS'Collection'
p2187
aS'J7'
p2188
aS'9'
p2189
aS'1'
p2190
aS'21'
p2191
aS'4'
p2192
aS'6'
p2193
aS'54'
p2194
aS'2'
p2195
aS'0'
p2196
aa(lp2197
S'359'
p2198
aS'Collection'
p2199
aS'J7'
p2200
aS'10'
p2201
aS'1'
p2202
aS'24'
p2203
aS'4'
p2204
aS'7'
p2205
aS'55'
p2206
aS'2'
p2207
aS'0'
p2208
aa(lp2209
S'360'
p2210
aS'Collection'
p2211
aS'J7'
p2212
aS'11'
p2213
aS'1'
p2214
aS'27'
p2215
aS'4'
p2216
aS'8'
p2217
aS'56'
p2218
aS'2'
p2219
aS'0'
p2220
aa(lp2221
S'361'
p2222
aS'Collection'
p2223
aS'J7'
p2224
aS'12'
p2225
aS'1'
p2226
aS'30'
p2227
aS'4'
p2228
aS'9'
p2229
aS'57'
p2230
aS'2'
p2231
aS'0'
p2232
aa(lp2233
S'362'
p2234
aS'Collection'
p2235
aS'J7'
p2236
aS'13'
p2237
aS'1'
p2238
aS'33'
p2239
aS'4'
p2240
aS'10'
p2241
aS'58'
p2242
aS'2'
p2243
aS'0'
p2244
aa(lp2245
S'363'
p2246
aS'Collection'
p2247
aS'J7'
p2248
aS'14'
p2249
aS'1'
p2250
aS'36'
p2251
aS'4'
p2252
aS'11'
p2253
aS'59'
p2254
aS'2'
p2255
aS'0'
p2256
aa(lp2257
S'364'
p2258
aS'Collection'
p2259
aS'J7'
p2260
aS'15'
p2261
aS'1'
p2262
aS'39'
p2263
aS'4'
p2264
aS'12'
p2265
aS'60'
p2266
aS'2'
p2267
aS'0'
p2268
aa(lp2269
S'365'
p2270
aS'Collection'
p2271
aS'J7'
p2272
aS'16'
p2273
aS'1'
p2274
aS'42'
p2275
aS'4'
p2276
aS'13'
p2277
aS'61'
p2278
aS'2'
p2279
aS'0'
p2280
aa(lp2281
S'366'
p2282
aS'Collection'
p2283
aS'J7'
p2284
aS'17'
p2285
aS'1'
p2286
aS'45'
p2287
aS'4'
p2288
aS'14'
p2289
aS'62'
p2290
aS'2'
p2291
aS'0'
p2292
aa(lp2293
S'367'
p2294
aS'Collection'
p2295
aS'J7'
p2296
aS'18'
p2297
aS'1'
p2298
aS'48'
p2299
aS'4'
p2300
aS'15'
p2301
aS'63'
p2302
aS'2'
p2303
aS'0'
p2304
aa(lp2305
S'368'
p2306
aS'Collection'
p2307
aS'J13'
p2308
aS'3'
p2309
aS'1'
p2310
aS'51'
p2311
aS'3'
p2312
aS'0'
p2313
aS'32'
p2314
aS'2'
p2315
aS'0'
p2316
aa(lp2317
S'369'
p2318
aS'Collection'
p2319
aS'J13'
p2320
aS'4'
p2321
aS'1'
p2322
aS'54'
p2323
aS'3'
p2324
aS'1'
p2325
aS'33'
p2326
aS'2'
p2327
aS'0'
p2328
aa(lp2329
S'370'
p2330
aS'Collection'
p2331
aS'J13'
p2332
aS'5'
p2333
aS'1'
p2334
aS'57'
p2335
aS'3'
p2336
aS'2'
p2337
aS'34'
p2338
aS'2'
p2339
aS'0'
p2340
aa(lp2341
S'371'
p2342
aS'Collection'
p2343
aS'J13'
p2344
aS'6'
p2345
aS'1'
p2346
aS'60'
p2347
aS'3'
p2348
aS'3'
p2349
aS'35'
p2350
aS'2'
p2351
aS'0'
p2352
aa(lp2353
S'372'
p2354
aS'Collection'
p2355
aS'J13'
p2356
aS'7'
p2357
aS'1'
p2358
aS'63'
p2359
aS'3'
p2360
aS'4'
p2361
aS'36'
p2362
aS'2'
p2363
aS'0'
p2364
aa(lp2365
S'373'
p2366
aS'Collection'
p2367
aS'J13'
p2368
aS'8'
p2369
aS'1'
p2370
aS'66'
p2371
aS'3'
p2372
aS'5'
p2373
aS'37'
p2374
aS'2'
p2375
aS'0'
p2376
aa(lp2377
S'374'
p2378
aS'Collection'
p2379
aS'J13'
p2380
aS'9'
p2381
aS'1'
p2382
aS'69'
p2383
aS'3'
p2384
aS'6'
p2385
aS'38'
p2386
aS'2'
p2387
aS'0'
p2388
aa(lp2389
S'375'
p2390
aS'Collection'
p2391
aS'J13'
p2392
aS'10'
p2393
aS'1'
p2394
aS'72'
p2395
aS'3'
p2396
aS'7'
p2397
aS'39'
p2398
aS'2'
p2399
aS'0'
p2400
aa(lp2401
S'376'
p2402
aS'Collection'
p2403
aS'J13'
p2404
aS'11'
p2405
aS'1'
p2406
aS'75'
p2407
aS'3'
p2408
aS'8'
p2409
aS'40'
p2410
aS'2'
p2411
aS'0'
p2412
aa(lp2413
S'377'
p2414
aS'Collection'
p2415
aS'J13'
p2416
aS'12'
p2417
aS'1'
p2418
aS'78'
p2419
aS'3'
p2420
aS'9'
p2421
aS'41'
p2422
aS'2'
p2423
aS'0'
p2424
aa(lp2425
S'378'
p2426
aS'Collection'
p2427
aS'J13'
p2428
aS'13'
p2429
aS'1'
p2430
aS'81'
p2431
aS'3'
p2432
aS'10'
p2433
aS'42'
p2434
aS'2'
p2435
aS'0'
p2436
aa(lp2437
S'379'
p2438
aS'Collection'
p2439
aS'J13'
p2440
aS'14'
p2441
aS'1'
p2442
aS'84'
p2443
aS'3'
p2444
aS'11'
p2445
aS'43'
p2446
aS'2'
p2447
aS'0'
p2448
aa(lp2449
S'380'
p2450
aS'Collection'
p2451
aS'J13'
p2452
aS'15'
p2453
aS'1'
p2454
aS'87'
p2455
aS'3'
p2456
aS'12'
p2457
aS'44'
p2458
aS'2'
p2459
aS'0'
p2460
aa(lp2461
S'381'
p2462
aS'Collection'
p2463
aS'J13'
p2464
aS'16'
p2465
aS'1'
p2466
aS'90'
p2467
aS'3'
p2468
aS'13'
p2469
aS'45'
p2470
aS'2'
p2471
aS'0'
p2472
aa(lp2473
S'382'
p2474
aS'Collection'
p2475
aS'J13'
p2476
aS'17'
p2477
aS'1'
p2478
aS'93'
p2479
aS'3'
p2480
aS'14'
p2481
aS'46'
p2482
aS'2'
p2483
aS'0'
p2484
aa(lp2485
S'383'
p2486
aS'Collection'
p2487
aS'J13'
p2488
aS'18'
p2489
aS'1'
p2490
aS'96'
p2491
aS'3'
p2492
aS'15'
p2493
aS'47'
p2494
aS'2'
p2495
aS'0'
p2496
aa(lp2497
S'64'
p2498
aS'Induction'
p2499
aS'J4'
p2500
aS'3'
p2501
aS'1'
p2502
aS'1'
p2503
aS'2'
p2504
aS'15'
p2505
aS'31'
p2506
aS'2'
p2507
aS'0'
p2508
aa(lp2509
S'65'
p2510
aS'Induction'
p2511
aS'J4'
p2512
aS'4'
p2513
aS'1'
p2514
aS'4'
p2515
aS'2'
p2516
aS'14'
p2517
aS'30'
p2518
aS'2'
p2519
aS'0'
p2520
aa(lp2521
S'66'
p2522
aS'Induction'
p2523
aS'J4'
p2524
aS'5'
p2525
aS'1'
p2526
aS'7'
p2527
aS'2'
p2528
aS'13'
p2529
aS'29'
p2530
aS'2'
p2531
aS'0'
p2532
aa(lp2533
S'67'
p2534
aS'Induction'
p2535
aS'J4'
p2536
aS'6'
p2537
aS'1'
p2538
aS'10'
p2539
aS'2'
p2540
aS'12'
p2541
aS'28'
p2542
aS'2'
p2543
aS'0'
p2544
aa(lp2545
S'68'
p2546
aS'Induction'
p2547
aS'J4'
p2548
aS'7'
p2549
aS'1'
p2550
aS'13'
p2551
aS'2'
p2552
aS'11'
p2553
aS'27'
p2554
aS'2'
p2555
aS'0'
p2556
aa(lp2557
S'69'
p2558
aS'Induction'
p2559
aS'J4'
p2560
aS'8'
p2561
aS'1'
p2562
aS'16'
p2563
aS'2'
p2564
aS'10'
p2565
aS'26'
p2566
aS'2'
p2567
aS'0'
p2568
aa(lp2569
S'70'
p2570
aS'Induction'
p2571
aS'J4'
p2572
aS'9'
p2573
aS'1'
p2574
aS'19'
p2575
aS'2'
p2576
aS'9'
p2577
aS'25'
p2578
aS'2'
p2579
aS'0'
p2580
aa(lp2581
S'71'
p2582
aS'Induction'
p2583
aS'J4'
p2584
aS'10'
p2585
aS'1'
p2586
aS'22'
p2587
aS'2'
p2588
aS'8'
p2589
aS'24'
p2590
aS'2'
p2591
aS'0'
p2592
aa(lp2593
S'72'
p2594
aS'Induction'
p2595
aS'J4'
p2596
aS'11'
p2597
aS'1'
p2598
aS'25'
p2599
aS'2'
p2600
aS'7'
p2601
aS'23'
p2602
aS'2'
p2603
aS'0'
p2604
aa(lp2605
S'73'
p2606
aS'Induction'
p2607
aS'J4'
p2608
aS'12'
p2609
aS'1'
p2610
aS'28'
p2611
aS'2'
p2612
aS'6'
p2613
aS'22'
p2614
aS'2'
p2615
aS'0'
p2616
aa(lp2617
S'74'
p2618
aS'Induction'
p2619
aS'J4'
p2620
aS'13'
p2621
aS'1'
p2622
aS'31'
p2623
aS'2'
p2624
aS'5'
p2625
aS'21'
p2626
aS'2'
p2627
aS'0'
p2628
aa(lp2629
S'75'
p2630
aS'Induction'
p2631
aS'J4'
p2632
aS'14'
p2633
aS'1'
p2634
aS'34'
p2635
aS'2'
p2636
aS'4'
p2637
aS'20'
p2638
aS'2'
p2639
aS'0'
p2640
aa(lp2641
S'76'
p2642
aS'Induction'
p2643
aS'J4'
p2644
aS'15'
p2645
aS'1'
p2646
aS'37'
p2647
aS'2'
p2648
aS'3'
p2649
aS'19'
p2650
aS'2'
p2651
aS'0'
p2652
aa(lp2653
S'77'
p2654
aS'Induction'
p2655
aS'J4'
p2656
aS'16'
p2657
aS'1'
p2658
aS'40'
p2659
aS'2'
p2660
aS'2'
p2661
aS'18'
p2662
aS'2'
p2663
aS'0'
p2664
aa(lp2665
S'78'
p2666
aS'Induction'
p2667
aS'J4'
p2668
aS'17'
p2669
aS'1'
p2670
aS'43'
p2671
aS'2'
p2672
aS'1'
p2673
aS'17'
p2674
aS'2'
p2675
aS'0'
p2676
aa(lp2677
S'79'
p2678
aS'Induction'
p2679
aS'J4'
p2680
aS'18'
p2681
aS'1'
p2682
aS'46'
p2683
aS'2'
p2684
aS'0'
p2685
aS'16'
p2686
aS'2'
p2687
aS'0'
p2688
aa(lp2689
S'80'
p2690
aS'Induction'
p2691
aS'J10'
p2692
aS'3'
p2693
aS'1'
p2694
aS'49'
p2695
aS'1'
p2696
aS'15'
p2697
aS'15'
p2698
aS'2'
p2699
aS'0'
p2700
aa(lp2701
S'81'
p2702
aS'Induction'
p2703
aS'J10'
p2704
aS'4'
p2705
aS'1'
p2706
aS'52'
p2707
aS'1'
p2708
aS'14'
p2709
aS'14'
p2710
aS'2'
p2711
aS'0'
p2712
aa(lp2713
S'82'
p2714
aS'Induction'
p2715
aS'J10'
p2716
aS'5'
p2717
aS'1'
p2718
aS'55'
p2719
aS'1'
p2720
aS'13'
p2721
aS'13'
p2722
aS'2'
p2723
aS'0'
p2724
aa(lp2725
S'83'
p2726
aS'Induction'
p2727
aS'J10'
p2728
aS'6'
p2729
aS'1'
p2730
aS'58'
p2731
aS'1'
p2732
aS'12'
p2733
aS'12'
p2734
aS'2'
p2735
aS'0'
p2736
aa(lp2737
S'84'
p2738
aS'Induction'
p2739
aS'J10'
p2740
aS'7'
p2741
aS'1'
p2742
aS'61'
p2743
aS'1'
p2744
aS'11'
p2745
aS'11'
p2746
aS'2'
p2747
aS'0'
p2748
aa(lp2749
S'85'
p2750
aS'Induction'
p2751
aS'J10'
p2752
aS'8'
p2753
aS'1'
p2754
aS'64'
p2755
aS'1'
p2756
aS'10'
p2757
aS'10'
p2758
aS'2'
p2759
aS'0'
p2760
aa(lp2761
S'86'
p2762
aS'Induction'
p2763
aS'J10'
p2764
aS'9'
p2765
aS'1'
p2766
aS'67'
p2767
aS'1'
p2768
aS'9'
p2769
aS'9'
p2770
aS'2'
p2771
aS'0'
p2772
aa(lp2773
S'87'
p2774
aS'Induction'
p2775
aS'J10'
p2776
aS'10'
p2777
aS'1'
p2778
aS'70'
p2779
aS'1'
p2780
aS'8'
p2781
aS'8'
p2782
aS'2'
p2783
aS'0'
p2784
aa(lp2785
S'88'
p2786
aS'Induction'
p2787
aS'J10'
p2788
aS'11'
p2789
aS'1'
p2790
aS'73'
p2791
aS'1'
p2792
aS'7'
p2793
aS'7'
p2794
aS'2'
p2795
aS'0'
p2796
aa(lp2797
S'89'
p2798
aS'Induction'
p2799
aS'J10'
p2800
aS'12'
p2801
aS'1'
p2802
aS'76'
p2803
aS'1'
p2804
aS'6'
p2805
aS'6'
p2806
aS'2'
p2807
aS'0'
p2808
aa(lp2809
S'90'
p2810
aS'Induction'
p2811
aS'J10'
p2812
aS'13'
p2813
aS'1'
p2814
aS'79'
p2815
aS'1'
p2816
aS'5'
p2817
aS'5'
p2818
aS'2'
p2819
aS'0'
p2820
aa(lp2821
S'91'
p2822
aS'Induction'
p2823
aS'J10'
p2824
aS'14'
p2825
aS'1'
p2826
aS'82'
p2827
aS'1'
p2828
aS'4'
p2829
aS'4'
p2830
aS'2'
p2831
aS'0'
p2832
aa(lp2833
S'92'
p2834
aS'Induction'
p2835
aS'J10'
p2836
aS'15'
p2837
aS'1'
p2838
aS'85'
p2839
aS'1'
p2840
aS'3'
p2841
aS'3'
p2842
aS'2'
p2843
aS'0'
p2844
aa(lp2845
S'93'
p2846
aS'Induction'
p2847
aS'J10'
p2848
aS'16'
p2849
aS'1'
p2850
aS'88'
p2851
aS'1'
p2852
aS'2'
p2853
aS'2'
p2854
aS'2'
p2855
aS'0'
p2856
aa(lp2857
S'94'
p2858
aS'Induction'
p2859
aS'J10'
p2860
aS'17'
p2861
aS'1'
p2862
aS'91'
p2863
aS'1'
p2864
aS'1'
p2865
aS'0'
p2866
aS'2'
p2867
aS'0'
p2868
aa(lp2869
S'95'
p2870
aS'Induction'
p2871
aS'J10'
p2872
aS'18'
p2873
aS'1'
p2874
aS'94'
p2875
aS'1'
p2876
aS'0'
p2877
aS'1'
p2878
aS'2'
p2879
aS'0'
p2880
aa(lp2881
S'384'
p2882
aS'Collection'
p2883
aS'J19'
p2884
aS'3'
p2885
aS'2'
p2886
aS'3'
p2887
aS'7'
p2888
aS'0'
p2889
aS'96'
p2890
aS'2'
p2891
aS'0'
p2892
aa(lp2893
S'385'
p2894
aS'Collection'
p2895
aS'J19'
p2896
aS'4'
p2897
aS'2'
p2898
aS'6'
p2899
aS'7'
p2900
aS'1'
p2901
aS'97'
p2902
aS'2'
p2903
aS'0'
p2904
aa(lp2905
S'386'
p2906
aS'Collection'
p2907
aS'J19'
p2908
aS'5'
p2909
aS'2'
p2910
aS'9'
p2911
aS'7'
p2912
aS'2'
p2913
aS'98'
p2914
aS'2'
p2915
aS'0'
p2916
aa(lp2917
S'387'
p2918
aS'Collection'
p2919
aS'J19'
p2920
aS'6'
p2921
aS'2'
p2922
aS'12'
p2923
aS'7'
p2924
aS'3'
p2925
aS'99'
p2926
aS'2'
p2927
aS'0'
p2928
aa(lp2929
S'388'
p2930
aS'Collection'
p2931
aS'J19'
p2932
aS'7'
p2933
aS'2'
p2934
aS'15'
p2935
aS'7'
p2936
aS'4'
p2937
aS'100'
p2938
aS'2'
p2939
aS'0'
p2940
aa(lp2941
S'389'
p2942
aS'Collection'
p2943
aS'J19'
p2944
aS'8'
p2945
aS'2'
p2946
aS'18'
p2947
aS'7'
p2948
aS'5'
p2949
aS'101'
p2950
aS'2'
p2951
aS'0'
p2952
aa(lp2953
S'390'
p2954
aS'Collection'
p2955
aS'J19'
p2956
aS'9'
p2957
aS'2'
p2958
aS'21'
p2959
aS'7'
p2960
aS'6'
p2961
aS'102'
p2962
aS'2'
p2963
aS'0'
p2964
aa(lp2965
S'391'
p2966
aS'Collection'
p2967
aS'J19'
p2968
aS'10'
p2969
aS'2'
p2970
aS'24'
p2971
aS'7'
p2972
aS'7'
p2973
aS'103'
p2974
aS'2'
p2975
aS'0'
p2976
aa(lp2977
S'392'
p2978
aS'Collection'
p2979
aS'J19'
p2980
aS'11'
p2981
aS'2'
p2982
aS'27'
p2983
aS'7'
p2984
aS'8'
p2985
aS'104'
p2986
aS'2'
p2987
aS'0'
p2988
aa(lp2989
S'393'
p2990
aS'Collection'
p2991
aS'J19'
p2992
aS'12'
p2993
aS'2'
p2994
aS'30'
p2995
aS'7'
p2996
aS'9'
p2997
aS'105'
p2998
aS'2'
p2999
aS'0'
p3000
aa(lp3001
S'394'
p3002
aS'Collection'
p3003
aS'J19'
p3004
aS'13'
p3005
aS'2'
p3006
aS'33'
p3007
aS'7'
p3008
aS'10'
p3009
aS'106'
p3010
aS'2'
p3011
aS'0'
p3012
aa(lp3013
S'395'
p3014
aS'Collection'
p3015
aS'J19'
p3016
aS'14'
p3017
aS'2'
p3018
aS'36'
p3019
aS'7'
p3020
aS'11'
p3021
aS'107'
p3022
aS'2'
p3023
aS'0'
p3024
aa(lp3025
S'396'
p3026
aS'Collection'
p3027
aS'J19'
p3028
aS'15'
p3029
aS'2'
p3030
aS'39'
p3031
aS'7'
p3032
aS'12'
p3033
aS'108'
p3034
aS'2'
p3035
aS'0'
p3036
aa(lp3037
S'397'
p3038
aS'Collection'
p3039
aS'J19'
p3040
aS'16'
p3041
aS'2'
p3042
aS'42'
p3043
aS'7'
p3044
aS'13'
p3045
aS'109'
p3046
aS'2'
p3047
aS'0'
p3048
aa(lp3049
S'398'
p3050
aS'Collection'
p3051
aS'J19'
p3052
aS'17'
p3053
aS'2'
p3054
aS'45'
p3055
aS'7'
p3056
aS'14'
p3057
aS'110'
p3058
aS'2'
p3059
aS'0'
p3060
aa(lp3061
S'399'
p3062
aS'Collection'
p3063
aS'J19'
p3064
aS'18'
p3065
aS'2'
p3066
aS'48'
p3067
aS'7'
p3068
aS'15'
p3069
aS'111'
p3070
aS'2'
p3071
aS'0'
p3072
aa(lp3073
S'400'
p3074
aS'Collection'
p3075
aS'J25'
p3076
aS'3'
p3077
aS'2'
p3078
aS'51'
p3079
aS'8'
p3080
aS'0'
p3081
aS'112'
p3082
aS'2'
p3083
aS'0'
p3084
aa(lp3085
S'401'
p3086
aS'Collection'
p3087
aS'J25'
p3088
aS'4'
p3089
aS'2'
p3090
aS'54'
p3091
aS'8'
p3092
aS'1'
p3093
aS'113'
p3094
aS'2'
p3095
aS'0'
p3096
aa(lp3097
S'402'
p3098
aS'Collection'
p3099
aS'J25'
p3100
aS'5'
p3101
aS'2'
p3102
aS'57'
p3103
aS'8'
p3104
aS'2'
p3105
aS'114'
p3106
aS'2'
p3107
aS'0'
p3108
aa(lp3109
S'403'
p3110
aS'Collection'
p3111
aS'J25'
p3112
aS'6'
p3113
aS'2'
p3114
aS'60'
p3115
aS'8'
p3116
aS'3'
p3117
aS'115'
p3118
aS'2'
p3119
aS'0'
p3120
aa(lp3121
S'404'
p3122
aS'Collection'
p3123
aS'J25'
p3124
aS'7'
p3125
aS'2'
p3126
aS'63'
p3127
aS'8'
p3128
aS'4'
p3129
aS'116'
p3130
aS'2'
p3131
aS'0'
p3132
aa(lp3133
S'405'
p3134
aS'Collection'
p3135
aS'J25'
p3136
aS'8'
p3137
aS'2'
p3138
aS'66'
p3139
aS'8'
p3140
aS'5'
p3141
aS'117'
p3142
aS'2'
p3143
aS'0'
p3144
aa(lp3145
S'406'
p3146
aS'Collection'
p3147
aS'J25'
p3148
aS'9'
p3149
aS'2'
p3150
aS'69'
p3151
aS'8'
p3152
aS'6'
p3153
aS'118'
p3154
aS'2'
p3155
aS'0'
p3156
aa(lp3157
S'407'
p3158
aS'Collection'
p3159
aS'J25'
p3160
aS'10'
p3161
aS'2'
p3162
aS'72'
p3163
aS'8'
p3164
aS'7'
p3165
aS'119'
p3166
aS'2'
p3167
aS'0'
p3168
aa(lp3169
S'408'
p3170
aS'Collection'
p3171
aS'J25'
p3172
aS'11'
p3173
aS'2'
p3174
aS'75'
p3175
aS'8'
p3176
aS'8'
p3177
aS'120'
p3178
aS'2'
p3179
aS'0'
p3180
aa(lp3181
S'409'
p3182
aS'Collection'
p3183
aS'J25'
p3184
aS'12'
p3185
aS'2'
p3186
aS'78'
p3187
aS'8'
p3188
aS'9'
p3189
aS'121'
p3190
aS'2'
p3191
aS'0'
p3192
aa(lp3193
S'410'
p3194
aS'Collection'
p3195
aS'J25'
p3196
aS'13'
p3197
aS'2'
p3198
aS'81'
p3199
aS'8'
p3200
aS'10'
p3201
aS'122'
p3202
aS'2'
p3203
aS'0'
p3204
aa(lp3205
S'411'
p3206
aS'Collection'
p3207
aS'J25'
p3208
aS'14'
p3209
aS'2'
p3210
aS'84'
p3211
aS'8'
p3212
aS'11'
p3213
aS'123'
p3214
aS'2'
p3215
aS'0'
p3216
aa(lp3217
S'412'
p3218
aS'Collection'
p3219
aS'J25'
p3220
aS'15'
p3221
aS'2'
p3222
aS'87'
p3223
aS'8'
p3224
aS'12'
p3225
aS'124'
p3226
aS'2'
p3227
aS'0'
p3228
aa(lp3229
S'413'
p3230
aS'Collection'
p3231
aS'J25'
p3232
aS'16'
p3233
aS'2'
p3234
aS'90'
p3235
aS'8'
p3236
aS'13'
p3237
aS'125'
p3238
aS'2'
p3239
aS'0'
p3240
aa(lp3241
S'414'
p3242
aS'Collection'
p3243
aS'J25'
p3244
aS'17'
p3245
aS'2'
p3246
aS'93'
p3247
aS'8'
p3248
aS'14'
p3249
aS'126'
p3250
aS'2'
p3251
aS'0'
p3252
aa(lp3253
S'415'
p3254
aS'Collection'
p3255
aS'J25'
p3256
aS'18'
p3257
aS'2'
p3258
aS'96'
p3259
aS'8'
p3260
aS'15'
p3261
aS'127'
p3262
aS'2'
p3263
aS'0'
p3264
aa(lp3265
S'96'
p3266
aS'Induction'
p3267
aS'J16'
p3268
aS'3'
p3269
aS'2'
p3270
aS'1'
p3271
aS'5'
p3272
aS'15'
p3273
aS'79'
p3274
aS'2'
p3275
aS'0'
p3276
aa(lp3277
S'97'
p3278
aS'Induction'
p3279
aS'J16'
p3280
aS'4'
p3281
aS'2'
p3282
aS'4'
p3283
aS'5'
p3284
aS'14'
p3285
aS'78'
p3286
aS'2'
p3287
aS'0'
p3288
aa(lp3289
S'98'
p3290
aS'Induction'
p3291
aS'J16'
p3292
aS'5'
p3293
aS'2'
p3294
aS'7'
p3295
aS'5'
p3296
aS'13'
p3297
aS'77'
p3298
aS'2'
p3299
aS'0'
p3300
aa(lp3301
S'99'
p3302
aS'Induction'
p3303
aS'J16'
p3304
aS'6'
p3305
aS'2'
p3306
aS'10'
p3307
aS'5'
p3308
aS'12'
p3309
aS'76'
p3310
aS'2'
p3311
aS'0'
p3312
aa(lp3313
S'100'
p3314
aS'Induction'
p3315
aS'J16'
p3316
aS'7'
p3317
aS'2'
p3318
aS'13'
p3319
aS'5'
p3320
aS'11'
p3321
aS'75'
p3322
aS'2'
p3323
aS'0'
p3324
aa(lp3325
S'101'
p3326
aS'Induction'
p3327
aS'J16'
p3328
aS'8'
p3329
aS'2'
p3330
aS'16'
p3331
aS'5'
p3332
aS'10'
p3333
aS'74'
p3334
aS'2'
p3335
aS'0'
p3336
aa(lp3337
S'102'
p3338
aS'Induction'
p3339
aS'J16'
p3340
aS'9'
p3341
aS'2'
p3342
aS'19'
p3343
aS'5'
p3344
aS'9'
p3345
aS'73'
p3346
aS'2'
p3347
aS'0'
p3348
aa(lp3349
S'103'
p3350
aS'Induction'
p3351
aS'J16'
p3352
aS'10'
p3353
aS'2'
p3354
aS'22'
p3355
aS'5'
p3356
aS'8'
p3357
aS'72'
p3358
aS'2'
p3359
aS'0'
p3360
aa(lp3361
S'104'
p3362
aS'Induction'
p3363
aS'J16'
p3364
aS'11'
p3365
aS'2'
p3366
aS'25'
p3367
aS'5'
p3368
aS'7'
p3369
aS'71'
p3370
aS'2'
p3371
aS'0'
p3372
aa(lp3373
S'105'
p3374
aS'Induction'
p3375
aS'J16'
p3376
aS'12'
p3377
aS'2'
p3378
aS'28'
p3379
aS'5'
p3380
aS'6'
p3381
aS'70'
p3382
aS'2'
p3383
aS'0'
p3384
aa(lp3385
S'106'
p3386
aS'Induction'
p3387
aS'J16'
p3388
aS'13'
p3389
aS'2'
p3390
aS'31'
p3391
aS'5'
p3392
aS'5'
p3393
aS'69'
p3394
aS'2'
p3395
aS'0'
p3396
aa(lp3397
S'107'
p3398
aS'Induction'
p3399
aS'J16'
p3400
aS'14'
p3401
aS'2'
p3402
aS'34'
p3403
aS'5'
p3404
aS'4'
p3405
aS'68'
p3406
aS'2'
p3407
aS'0'
p3408
aa(lp3409
S'108'
p3410
aS'Induction'
p3411
aS'J16'
p3412
aS'15'
p3413
aS'2'
p3414
aS'37'
p3415
aS'5'
p3416
aS'3'
p3417
aS'67'
p3418
aS'2'
p3419
aS'0'
p3420
aa(lp3421
S'109'
p3422
aS'Induction'
p3423
aS'J16'
p3424
aS'16'
p3425
aS'2'
p3426
aS'40'
p3427
aS'5'
p3428
aS'2'
p3429
aS'66'
p3430
aS'2'
p3431
aS'0'
p3432
aa(lp3433
S'110'
p3434
aS'Induction'
p3435
aS'J16'
p3436
aS'17'
p3437
aS'2'
p3438
aS'43'
p3439
aS'5'
p3440
aS'1'
p3441
aS'65'
p3442
aS'2'
p3443
aS'0'
p3444
aa(lp3445
S'111'
p3446
aS'Induction'
p3447
aS'J16'
p3448
aS'18'
p3449
aS'2'
p3450
aS'46'
p3451
aS'5'
p3452
aS'0'
p3453
aS'64'
p3454
aS'2'
p3455
aS'0'
p3456
aa(lp3457
S'112'
p3458
aS'Induction'
p3459
aS'J22'
p3460
aS'3'
p3461
aS'2'
p3462
aS'49'
p3463
aS'6'
p3464
aS'15'
p3465
aS'95'
p3466
aS'2'
p3467
aS'0'
p3468
aa(lp3469
S'113'
p3470
aS'Induction'
p3471
aS'J22'
p3472
aS'4'
p3473
aS'2'
p3474
aS'52'
p3475
aS'6'
p3476
aS'14'
p3477
aS'94'
p3478
aS'2'
p3479
aS'0'
p3480
aa(lp3481
S'114'
p3482
aS'Induction'
p3483
aS'J22'
p3484
aS'5'
p3485
aS'2'
p3486
aS'55'
p3487
aS'6'
p3488
aS'13'
p3489
aS'93'
p3490
aS'2'
p3491
aS'0'
p3492
aa(lp3493
S'115'
p3494
aS'Induction'
p3495
aS'J22'
p3496
aS'6'
p3497
aS'2'
p3498
aS'58'
p3499
aS'6'
p3500
aS'12'
p3501
aS'92'
p3502
aS'2'
p3503
aS'0'
p3504
aa(lp3505
S'116'
p3506
aS'Induction'
p3507
aS'J22'
p3508
aS'7'
p3509
aS'2'
p3510
aS'61'
p3511
aS'6'
p3512
aS'11'
p3513
aS'91'
p3514
aS'2'
p3515
aS'0'
p3516
aa(lp3517
S'117'
p3518
aS'Induction'
p3519
aS'J22'
p3520
aS'8'
p3521
aS'2'
p3522
aS'64'
p3523
aS'6'
p3524
aS'10'
p3525
aS'90'
p3526
aS'2'
p3527
aS'0'
p3528
aa(lp3529
S'118'
p3530
aS'Induction'
p3531
aS'J22'
p3532
aS'9'
p3533
aS'2'
p3534
aS'67'
p3535
aS'6'
p3536
aS'9'
p3537
aS'89'
p3538
aS'2'
p3539
aS'0'
p3540
aa(lp3541
S'119'
p3542
aS'Induction'
p3543
aS'J22'
p3544
aS'10'
p3545
aS'2'
p3546
aS'70'
p3547
aS'6'
p3548
aS'8'
p3549
aS'88'
p3550
aS'2'
p3551
aS'0'
p3552
aa(lp3553
S'120'
p3554
aS'Induction'
p3555
aS'J22'
p3556
aS'11'
p3557
aS'2'
p3558
aS'73'
p3559
aS'6'
p3560
aS'7'
p3561
aS'87'
p3562
aS'2'
p3563
aS'0'
p3564
aa(lp3565
S'121'
p3566
aS'Induction'
p3567
aS'J22'
p3568
aS'12'
p3569
aS'2'
p3570
aS'76'
p3571
aS'6'
p3572
aS'6'
p3573
aS'86'
p3574
aS'2'
p3575
aS'0'
p3576
aa(lp3577
S'122'
p3578
aS'Induction'
p3579
aS'J22'
p3580
aS'13'
p3581
aS'2'
p3582
aS'79'
p3583
aS'6'
p3584
aS'5'
p3585
aS'85'
p3586
aS'2'
p3587
aS'0'
p3588
aa(lp3589
S'123'
p3590
aS'Induction'
p3591
aS'J22'
p3592
aS'14'
p3593
aS'2'
p3594
aS'82'
p3595
aS'6'
p3596
aS'4'
p3597
aS'84'
p3598
aS'2'
p3599
aS'0'
p3600
aa(lp3601
S'124'
p3602
aS'Induction'
p3603
aS'J22'
p3604
aS'15'
p3605
aS'2'
p3606
aS'85'
p3607
aS'6'
p3608
aS'3'
p3609
aS'83'
p3610
aS'2'
p3611
aS'0'
p3612
aa(lp3613
S'125'
p3614
aS'Induction'
p3615
aS'J22'
p3616
aS'16'
p3617
aS'2'
p3618
aS'88'
p3619
aS'6'
p3620
aS'2'
p3621
aS'82'
p3622
aS'2'
p3623
aS'0'
p3624
aa(lp3625
S'126'
p3626
aS'Induction'
p3627
aS'J22'
p3628
aS'17'
p3629
aS'2'
p3630
aS'91'
p3631
aS'6'
p3632
aS'1'
p3633
aS'81'
p3634
aS'2'
p3635
aS'0'
p3636
aa(lp3637
S'127'
p3638
aS'Induction'
p3639
aS'J22'
p3640
aS'18'
p3641
aS'2'
p3642
aS'94'
p3643
aS'6'
p3644
aS'0'
p3645
aS'80'
p3646
aS'2'
p3647
aS'0'
p3648
aa(lp3649
S'416'
p3650
aS'Collection'
p3651
aS'J6'
p3652
aS'3'
p3653
aS'1'
p3654
aS'3'
p3655
aS'4'
p3656
aS'0'
p3657
aS'48'
p3658
aS'3'
p3659
aS'0'
p3660
aa(lp3661
S'417'
p3662
aS'Collection'
p3663
aS'J6'
p3664
aS'4'
p3665
aS'1'
p3666
aS'6'
p3667
aS'4'
p3668
aS'1'
p3669
aS'49'
p3670
aS'3'
p3671
aS'0'
p3672
aa(lp3673
S'418'
p3674
aS'Collection'
p3675
aS'J6'
p3676
aS'5'
p3677
aS'1'
p3678
aS'9'
p3679
aS'4'
p3680
aS'2'
p3681
aS'50'
p3682
aS'3'
p3683
aS'0'
p3684
aa(lp3685
S'419'
p3686
aS'Collection'
p3687
aS'J6'
p3688
aS'6'
p3689
aS'1'
p3690
aS'12'
p3691
aS'4'
p3692
aS'3'
p3693
aS'51'
p3694
aS'3'
p3695
aS'0'
p3696
aa(lp3697
S'420'
p3698
aS'Collection'
p3699
aS'J6'
p3700
aS'7'
p3701
aS'1'
p3702
aS'15'
p3703
aS'4'
p3704
aS'4'
p3705
aS'52'
p3706
aS'3'
p3707
aS'0'
p3708
aa(lp3709
S'421'
p3710
aS'Collection'
p3711
aS'J6'
p3712
aS'8'
p3713
aS'1'
p3714
aS'18'
p3715
aS'4'
p3716
aS'5'
p3717
aS'53'
p3718
aS'3'
p3719
aS'0'
p3720
aa(lp3721
S'422'
p3722
aS'Collection'
p3723
aS'J6'
p3724
aS'9'
p3725
aS'1'
p3726
aS'21'
p3727
aS'4'
p3728
aS'6'
p3729
aS'54'
p3730
aS'3'
p3731
aS'0'
p3732
aa(lp3733
S'423'
p3734
aS'Collection'
p3735
aS'J6'
p3736
aS'10'
p3737
aS'1'
p3738
aS'24'
p3739
aS'4'
p3740
aS'7'
p3741
aS'55'
p3742
aS'3'
p3743
aS'0'
p3744
aa(lp3745
S'424'
p3746
aS'Collection'
p3747
aS'J6'
p3748
aS'11'
p3749
aS'1'
p3750
aS'27'
p3751
aS'4'
p3752
aS'8'
p3753
aS'56'
p3754
aS'3'
p3755
aS'0'
p3756
aa(lp3757
S'425'
p3758
aS'Collection'
p3759
aS'J6'
p3760
aS'12'
p3761
aS'1'
p3762
aS'30'
p3763
aS'4'
p3764
aS'9'
p3765
aS'57'
p3766
aS'3'
p3767
aS'0'
p3768
aa(lp3769
S'426'
p3770
aS'Collection'
p3771
aS'J6'
p3772
aS'13'
p3773
aS'1'
p3774
aS'33'
p3775
aS'4'
p3776
aS'10'
p3777
aS'58'
p3778
aS'3'
p3779
aS'0'
p3780
aa(lp3781
S'427'
p3782
aS'Collection'
p3783
aS'J6'
p3784
aS'14'
p3785
aS'1'
p3786
aS'36'
p3787
aS'4'
p3788
aS'11'
p3789
aS'59'
p3790
aS'3'
p3791
aS'0'
p3792
aa(lp3793
S'428'
p3794
aS'Collection'
p3795
aS'J6'
p3796
aS'15'
p3797
aS'1'
p3798
aS'39'
p3799
aS'4'
p3800
aS'12'
p3801
aS'60'
p3802
aS'3'
p3803
aS'0'
p3804
aa(lp3805
S'429'
p3806
aS'Collection'
p3807
aS'J6'
p3808
aS'16'
p3809
aS'1'
p3810
aS'42'
p3811
aS'4'
p3812
aS'13'
p3813
aS'61'
p3814
aS'3'
p3815
aS'0'
p3816
aa(lp3817
S'430'
p3818
aS'Collection'
p3819
aS'J6'
p3820
aS'17'
p3821
aS'1'
p3822
aS'45'
p3823
aS'4'
p3824
aS'14'
p3825
aS'62'
p3826
aS'3'
p3827
aS'0'
p3828
aa(lp3829
S'431'
p3830
aS'Collection'
p3831
aS'J6'
p3832
aS'18'
p3833
aS'1'
p3834
aS'48'
p3835
aS'4'
p3836
aS'15'
p3837
aS'63'
p3838
aS'3'
p3839
aS'0'
p3840
aa(lp3841
S'432'
p3842
aS'Collection'
p3843
aS'J12'
p3844
aS'3'
p3845
aS'1'
p3846
aS'51'
p3847
aS'3'
p3848
aS'0'
p3849
aS'32'
p3850
aS'3'
p3851
aS'0'
p3852
aa(lp3853
S'433'
p3854
aS'Collection'
p3855
aS'J12'
p3856
aS'4'
p3857
aS'1'
p3858
aS'54'
p3859
aS'3'
p3860
aS'1'
p3861
aS'33'
p3862
aS'3'
p3863
aS'0'
p3864
aa(lp3865
S'434'
p3866
aS'Collection'
p3867
aS'J12'
p3868
aS'5'
p3869
aS'1'
p3870
aS'57'
p3871
aS'3'
p3872
aS'2'
p3873
aS'34'
p3874
aS'3'
p3875
aS'0'
p3876
aa(lp3877
S'435'
p3878
aS'Collection'
p3879
aS'J12'
p3880
aS'6'
p3881
aS'1'
p3882
aS'60'
p3883
aS'3'
p3884
aS'3'
p3885
aS'35'
p3886
aS'3'
p3887
aS'0'
p3888
aa(lp3889
S'436'
p3890
aS'Collection'
p3891
aS'J12'
p3892
aS'7'
p3893
aS'1'
p3894
aS'63'
p3895
aS'3'
p3896
aS'4'
p3897
aS'36'
p3898
aS'3'
p3899
aS'0'
p3900
aa(lp3901
S'437'
p3902
aS'Collection'
p3903
aS'J12'
p3904
aS'8'
p3905
aS'1'
p3906
aS'66'
p3907
aS'3'
p3908
aS'5'
p3909
aS'37'
p3910
aS'3'
p3911
aS'0'
p3912
aa(lp3913
S'438'
p3914
aS'Collection'
p3915
aS'J12'
p3916
aS'9'
p3917
aS'1'
p3918
aS'69'
p3919
aS'3'
p3920
aS'6'
p3921
aS'38'
p3922
aS'3'
p3923
aS'0'
p3924
aa(lp3925
S'439'
p3926
aS'Collection'
p3927
aS'J12'
p3928
aS'10'
p3929
aS'1'
p3930
aS'72'
p3931
aS'3'
p3932
aS'7'
p3933
aS'39'
p3934
aS'3'
p3935
aS'0'
p3936
aa(lp3937
S'440'
p3938
aS'Collection'
p3939
aS'J12'
p3940
aS'11'
p3941
aS'1'
p3942
aS'75'
p3943
aS'3'
p3944
aS'8'
p3945
aS'40'
p3946
aS'3'
p3947
aS'0'
p3948
aa(lp3949
S'441'
p3950
aS'Collection'
p3951
aS'J12'
p3952
aS'12'
p3953
aS'1'
p3954
aS'78'
p3955
aS'3'
p3956
aS'9'
p3957
aS'41'
p3958
aS'3'
p3959
aS'0'
p3960
aa(lp3961
S'442'
p3962
aS'Collection'
p3963
aS'J12'
p3964
aS'13'
p3965
aS'1'
p3966
aS'81'
p3967
aS'3'
p3968
aS'10'
p3969
aS'42'
p3970
aS'3'
p3971
aS'0'
p3972
aa(lp3973
S'443'
p3974
aS'Collection'
p3975
aS'J12'
p3976
aS'14'
p3977
aS'1'
p3978
aS'84'
p3979
aS'3'
p3980
aS'11'
p3981
aS'43'
p3982
aS'3'
p3983
aS'0'
p3984
aa(lp3985
S'444'
p3986
aS'Collection'
p3987
aS'J12'
p3988
aS'15'
p3989
aS'1'
p3990
aS'87'
p3991
aS'3'
p3992
aS'12'
p3993
aS'44'
p3994
aS'3'
p3995
aS'0'
p3996
aa(lp3997
S'445'
p3998
aS'Collection'
p3999
aS'J12'
p4000
aS'16'
p4001
aS'1'
p4002
aS'90'
p4003
aS'3'
p4004
aS'13'
p4005
aS'45'
p4006
aS'3'
p4007
aS'0'
p4008
aa(lp4009
S'446'
p4010
aS'Collection'
p4011
aS'J12'
p4012
aS'17'
p4013
aS'1'
p4014
aS'93'
p4015
aS'3'
p4016
aS'14'
p4017
aS'46'
p4018
aS'3'
p4019
aS'0'
p4020
aa(lp4021
S'447'
p4022
aS'Collection'
p4023
aS'J12'
p4024
aS'18'
p4025
aS'1'
p4026
aS'96'
p4027
aS'3'
p4028
aS'15'
p4029
aS'47'
p4030
aS'3'
p4031
aS'0'
p4032
aa(lp4033
S'128'
p4034
aS'Induction'
p4035
aS'J3'
p4036
aS'3'
p4037
aS'1'
p4038
aS'1'
p4039
aS'2'
p4040
aS'15'
p4041
aS'31'
p4042
aS'3'
p4043
aS'0'
p4044
aa(lp4045
S'129'
p4046
aS'Induction'
p4047
aS'J3'
p4048
aS'4'
p4049
aS'1'
p4050
aS'4'
p4051
aS'2'
p4052
aS'14'
p4053
aS'30'
p4054
aS'3'
p4055
aS'0'
p4056
aa(lp4057
S'130'
p4058
aS'Induction'
p4059
aS'J3'
p4060
aS'5'
p4061
aS'1'
p4062
aS'7'
p4063
aS'2'
p4064
aS'13'
p4065
aS'29'
p4066
aS'3'
p4067
aS'0'
p4068
aa(lp4069
S'131'
p4070
aS'Induction'
p4071
aS'J3'
p4072
aS'6'
p4073
aS'1'
p4074
aS'10'
p4075
aS'2'
p4076
aS'12'
p4077
aS'28'
p4078
aS'3'
p4079
aS'0'
p4080
aa(lp4081
S'132'
p4082
aS'Induction'
p4083
aS'J3'
p4084
aS'7'
p4085
aS'1'
p4086
aS'13'
p4087
aS'2'
p4088
aS'11'
p4089
aS'27'
p4090
aS'3'
p4091
aS'0'
p4092
aa(lp4093
S'133'
p4094
aS'Induction'
p4095
aS'J3'
p4096
aS'8'
p4097
aS'1'
p4098
aS'16'
p4099
aS'2'
p4100
aS'10'
p4101
aS'26'
p4102
aS'3'
p4103
aS'0'
p4104
aa(lp4105
S'134'
p4106
aS'Induction'
p4107
aS'J3'
p4108
aS'9'
p4109
aS'1'
p4110
aS'19'
p4111
aS'2'
p4112
aS'9'
p4113
aS'25'
p4114
aS'3'
p4115
aS'0'
p4116
aa(lp4117
S'135'
p4118
aS'Induction'
p4119
aS'J3'
p4120
aS'10'
p4121
aS'1'
p4122
aS'22'
p4123
aS'2'
p4124
aS'8'
p4125
aS'24'
p4126
aS'3'
p4127
aS'0'
p4128
aa(lp4129
S'136'
p4130
aS'Induction'
p4131
aS'J3'
p4132
aS'11'
p4133
aS'1'
p4134
aS'25'
p4135
aS'2'
p4136
aS'7'
p4137
aS'23'
p4138
aS'3'
p4139
aS'0'
p4140
aa(lp4141
S'137'
p4142
aS'Induction'
p4143
aS'J3'
p4144
aS'12'
p4145
aS'1'
p4146
aS'28'
p4147
aS'2'
p4148
aS'6'
p4149
aS'22'
p4150
aS'3'
p4151
aS'0'
p4152
aa(lp4153
S'138'
p4154
aS'Induction'
p4155
aS'J3'
p4156
aS'13'
p4157
aS'1'
p4158
aS'31'
p4159
aS'2'
p4160
aS'5'
p4161
aS'21'
p4162
aS'3'
p4163
aS'0'
p4164
aa(lp4165
S'139'
p4166
aS'Induction'
p4167
aS'J3'
p4168
aS'14'
p4169
aS'1'
p4170
aS'34'
p4171
aS'2'
p4172
aS'4'
p4173
aS'20'
p4174
aS'3'
p4175
aS'0'
p4176
aa(lp4177
S'140'
p4178
aS'Induction'
p4179
aS'J3'
p4180
aS'15'
p4181
aS'1'
p4182
aS'37'
p4183
aS'2'
p4184
aS'3'
p4185
aS'19'
p4186
aS'3'
p4187
aS'0'
p4188
aa(lp4189
S'141'
p4190
aS'Induction'
p4191
aS'J3'
p4192
aS'16'
p4193
aS'1'
p4194
aS'40'
p4195
aS'2'
p4196
aS'2'
p4197
aS'18'
p4198
aS'3'
p4199
aS'0'
p4200
aa(lp4201
S'142'
p4202
aS'Induction'
p4203
aS'J3'
p4204
aS'17'
p4205
aS'1'
p4206
aS'43'
p4207
aS'2'
p4208
aS'1'
p4209
aS'17'
p4210
aS'3'
p4211
aS'0'
p4212
aa(lp4213
S'143'
p4214
aS'Induction'
p4215
aS'J3'
p4216
aS'18'
p4217
aS'1'
p4218
aS'46'
p4219
aS'2'
p4220
aS'0'
p4221
aS'16'
p4222
aS'3'
p4223
aS'0'
p4224
aa(lp4225
S'144'
p4226
aS'Induction'
p4227
aS'J9'
p4228
aS'3'
p4229
aS'1'
p4230
aS'49'
p4231
aS'1'
p4232
aS'15'
p4233
aS'15'
p4234
aS'3'
p4235
aS'0'
p4236
aa(lp4237
S'145'
p4238
aS'Induction'
p4239
aS'J9'
p4240
aS'4'
p4241
aS'1'
p4242
aS'52'
p4243
aS'1'
p4244
aS'14'
p4245
aS'14'
p4246
aS'3'
p4247
aS'0'
p4248
aa(lp4249
S'146'
p4250
aS'Induction'
p4251
aS'J9'
p4252
aS'5'
p4253
aS'1'
p4254
aS'55'
p4255
aS'1'
p4256
aS'13'
p4257
aS'13'
p4258
aS'3'
p4259
aS'0'
p4260
aa(lp4261
S'147'
p4262
aS'Induction'
p4263
aS'J9'
p4264
aS'6'
p4265
aS'1'
p4266
aS'58'
p4267
aS'1'
p4268
aS'12'
p4269
aS'12'
p4270
aS'3'
p4271
aS'0'
p4272
aa(lp4273
S'148'
p4274
aS'Induction'
p4275
aS'J9'
p4276
aS'7'
p4277
aS'1'
p4278
aS'61'
p4279
aS'1'
p4280
aS'11'
p4281
aS'11'
p4282
aS'3'
p4283
aS'0'
p4284
aa(lp4285
S'149'
p4286
aS'Induction'
p4287
aS'J9'
p4288
aS'8'
p4289
aS'1'
p4290
aS'64'
p4291
aS'1'
p4292
aS'10'
p4293
aS'10'
p4294
aS'3'
p4295
aS'0'
p4296
aa(lp4297
S'150'
p4298
aS'Induction'
p4299
aS'J9'
p4300
aS'9'
p4301
aS'1'
p4302
aS'67'
p4303
aS'1'
p4304
aS'9'
p4305
aS'9'
p4306
aS'3'
p4307
aS'0'
p4308
aa(lp4309
S'151'
p4310
aS'Induction'
p4311
aS'J9'
p4312
aS'10'
p4313
aS'1'
p4314
aS'70'
p4315
aS'1'
p4316
aS'8'
p4317
aS'8'
p4318
aS'3'
p4319
aS'0'
p4320
aa(lp4321
S'152'
p4322
aS'Induction'
p4323
aS'J9'
p4324
aS'11'
p4325
aS'1'
p4326
aS'73'
p4327
aS'1'
p4328
aS'7'
p4329
aS'7'
p4330
aS'3'
p4331
aS'0'
p4332
aa(lp4333
S'153'
p4334
aS'Induction'
p4335
aS'J9'
p4336
aS'12'
p4337
aS'1'
p4338
aS'76'
p4339
aS'1'
p4340
aS'6'
p4341
aS'6'
p4342
aS'3'
p4343
aS'0'
p4344
aa(lp4345
S'154'
p4346
aS'Induction'
p4347
aS'J9'
p4348
aS'13'
p4349
aS'1'
p4350
aS'79'
p4351
aS'1'
p4352
aS'5'
p4353
aS'5'
p4354
aS'3'
p4355
aS'0'
p4356
aa(lp4357
S'155'
p4358
aS'Induction'
p4359
aS'J9'
p4360
aS'14'
p4361
aS'1'
p4362
aS'82'
p4363
aS'1'
p4364
aS'4'
p4365
aS'4'
p4366
aS'3'
p4367
aS'0'
p4368
aa(lp4369
S'156'
p4370
aS'Induction'
p4371
aS'J9'
p4372
aS'15'
p4373
aS'1'
p4374
aS'85'
p4375
aS'1'
p4376
aS'3'
p4377
aS'3'
p4378
aS'3'
p4379
aS'0'
p4380
aa(lp4381
S'157'
p4382
aS'Induction'
p4383
aS'J9'
p4384
aS'16'
p4385
aS'1'
p4386
aS'88'
p4387
aS'1'
p4388
aS'2'
p4389
aS'2'
p4390
aS'3'
p4391
aS'0'
p4392
aa(lp4393
S'158'
p4394
aS'Induction'
p4395
aS'J9'
p4396
aS'17'
p4397
aS'1'
p4398
aS'91'
p4399
aS'1'
p4400
aS'1'
p4401
aS'0'
p4402
aS'3'
p4403
aS'0'
p4404
aa(lp4405
S'159'
p4406
aS'Induction'
p4407
aS'J9'
p4408
aS'18'
p4409
aS'1'
p4410
aS'94'
p4411
aS'1'
p4412
aS'0'
p4413
aS'1'
p4414
aS'3'
p4415
aS'0'
p4416
aa(lp4417
S'448'
p4418
aS'Collection'
p4419
aS'J18'
p4420
aS'3'
p4421
aS'2'
p4422
aS'3'
p4423
aS'7'
p4424
aS'0'
p4425
aS'96'
p4426
aS'3'
p4427
aS'0'
p4428
aa(lp4429
S'449'
p4430
aS'Collection'
p4431
aS'J18'
p4432
aS'4'
p4433
aS'2'
p4434
aS'6'
p4435
aS'7'
p4436
aS'1'
p4437
aS'97'
p4438
aS'3'
p4439
aS'0'
p4440
aa(lp4441
S'450'
p4442
aS'Collection'
p4443
aS'J18'
p4444
aS'5'
p4445
aS'2'
p4446
aS'9'
p4447
aS'7'
p4448
aS'2'
p4449
aS'98'
p4450
aS'3'
p4451
aS'0'
p4452
aa(lp4453
S'451'
p4454
aS'Collection'
p4455
aS'J18'
p4456
aS'6'
p4457
aS'2'
p4458
aS'12'
p4459
aS'7'
p4460
aS'3'
p4461
aS'99'
p4462
aS'3'
p4463
aS'0'
p4464
aa(lp4465
S'452'
p4466
aS'Collection'
p4467
aS'J18'
p4468
aS'7'
p4469
aS'2'
p4470
aS'15'
p4471
aS'7'
p4472
aS'4'
p4473
aS'100'
p4474
aS'3'
p4475
aS'0'
p4476
aa(lp4477
S'453'
p4478
aS'Collection'
p4479
aS'J18'
p4480
aS'8'
p4481
aS'2'
p4482
aS'18'
p4483
aS'7'
p4484
aS'5'
p4485
aS'101'
p4486
aS'3'
p4487
aS'0'
p4488
aa(lp4489
S'454'
p4490
aS'Collection'
p4491
aS'J18'
p4492
aS'9'
p4493
aS'2'
p4494
aS'21'
p4495
aS'7'
p4496
aS'6'
p4497
aS'102'
p4498
aS'3'
p4499
aS'0'
p4500
aa(lp4501
S'455'
p4502
aS'Collection'
p4503
aS'J18'
p4504
aS'10'
p4505
aS'2'
p4506
aS'24'
p4507
aS'7'
p4508
aS'7'
p4509
aS'103'
p4510
aS'3'
p4511
aS'0'
p4512
aa(lp4513
S'456'
p4514
aS'Collection'
p4515
aS'J18'
p4516
aS'11'
p4517
aS'2'
p4518
aS'27'
p4519
aS'7'
p4520
aS'8'
p4521
aS'104'
p4522
aS'3'
p4523
aS'0'
p4524
aa(lp4525
S'457'
p4526
aS'Collection'
p4527
aS'J18'
p4528
aS'12'
p4529
aS'2'
p4530
aS'30'
p4531
aS'7'
p4532
aS'9'
p4533
aS'105'
p4534
aS'3'
p4535
aS'0'
p4536
aa(lp4537
S'458'
p4538
aS'Collection'
p4539
aS'J18'
p4540
aS'13'
p4541
aS'2'
p4542
aS'33'
p4543
aS'7'
p4544
aS'10'
p4545
aS'106'
p4546
aS'3'
p4547
aS'0'
p4548
aa(lp4549
S'459'
p4550
aS'Collection'
p4551
aS'J18'
p4552
aS'14'
p4553
aS'2'
p4554
aS'36'
p4555
aS'7'
p4556
aS'11'
p4557
aS'107'
p4558
aS'3'
p4559
aS'0'
p4560
aa(lp4561
S'460'
p4562
aS'Collection'
p4563
aS'J18'
p4564
aS'15'
p4565
aS'2'
p4566
aS'39'
p4567
aS'7'
p4568
aS'12'
p4569
aS'108'
p4570
aS'3'
p4571
aS'0'
p4572
aa(lp4573
S'461'
p4574
aS'Collection'
p4575
aS'J18'
p4576
aS'16'
p4577
aS'2'
p4578
aS'42'
p4579
aS'7'
p4580
aS'13'
p4581
aS'109'
p4582
aS'3'
p4583
aS'0'
p4584
aa(lp4585
S'462'
p4586
aS'Collection'
p4587
aS'J18'
p4588
aS'17'
p4589
aS'2'
p4590
aS'45'
p4591
aS'7'
p4592
aS'14'
p4593
aS'110'
p4594
aS'3'
p4595
aS'0'
p4596
aa(lp4597
S'463'
p4598
aS'Collection'
p4599
aS'J18'
p4600
aS'18'
p4601
aS'2'
p4602
aS'48'
p4603
aS'7'
p4604
aS'15'
p4605
aS'111'
p4606
aS'3'
p4607
aS'0'
p4608
aa(lp4609
S'464'
p4610
aS'Collection'
p4611
aS'J24'
p4612
aS'3'
p4613
aS'2'
p4614
aS'51'
p4615
aS'8'
p4616
aS'0'
p4617
aS'112'
p4618
aS'3'
p4619
aS'0'
p4620
aa(lp4621
S'465'
p4622
aS'Collection'
p4623
aS'J24'
p4624
aS'4'
p4625
aS'2'
p4626
aS'54'
p4627
aS'8'
p4628
aS'1'
p4629
aS'113'
p4630
aS'3'
p4631
aS'0'
p4632
aa(lp4633
S'466'
p4634
aS'Collection'
p4635
aS'J24'
p4636
aS'5'
p4637
aS'2'
p4638
aS'57'
p4639
aS'8'
p4640
aS'2'
p4641
aS'114'
p4642
aS'3'
p4643
aS'0'
p4644
aa(lp4645
S'467'
p4646
aS'Collection'
p4647
aS'J24'
p4648
aS'6'
p4649
aS'2'
p4650
aS'60'
p4651
aS'8'
p4652
aS'3'
p4653
aS'115'
p4654
aS'3'
p4655
aS'0'
p4656
aa(lp4657
S'468'
p4658
aS'Collection'
p4659
aS'J24'
p4660
aS'7'
p4661
aS'2'
p4662
aS'63'
p4663
aS'8'
p4664
aS'4'
p4665
aS'116'
p4666
aS'3'
p4667
aS'0'
p4668
aa(lp4669
S'469'
p4670
aS'Collection'
p4671
aS'J24'
p4672
aS'8'
p4673
aS'2'
p4674
aS'66'
p4675
aS'8'
p4676
aS'5'
p4677
aS'117'
p4678
aS'3'
p4679
aS'0'
p4680
aa(lp4681
S'470'
p4682
aS'Collection'
p4683
aS'J24'
p4684
aS'9'
p4685
aS'2'
p4686
aS'69'
p4687
aS'8'
p4688
aS'6'
p4689
aS'118'
p4690
aS'3'
p4691
aS'0'
p4692
aa(lp4693
S'471'
p4694
aS'Collection'
p4695
aS'J24'
p4696
aS'10'
p4697
aS'2'
p4698
aS'72'
p4699
aS'8'
p4700
aS'7'
p4701
aS'119'
p4702
aS'3'
p4703
aS'0'
p4704
aa(lp4705
S'472'
p4706
aS'Collection'
p4707
aS'J24'
p4708
aS'11'
p4709
aS'2'
p4710
aS'75'
p4711
aS'8'
p4712
aS'8'
p4713
aS'120'
p4714
aS'3'
p4715
aS'0'
p4716
aa(lp4717
S'473'
p4718
aS'Collection'
p4719
aS'J24'
p4720
aS'12'
p4721
aS'2'
p4722
aS'78'
p4723
aS'8'
p4724
aS'9'
p4725
aS'121'
p4726
aS'3'
p4727
aS'0'
p4728
aa(lp4729
S'474'
p4730
aS'Collection'
p4731
aS'J24'
p4732
aS'13'
p4733
aS'2'
p4734
aS'81'
p4735
aS'8'
p4736
aS'10'
p4737
aS'122'
p4738
aS'3'
p4739
aS'0'
p4740
aa(lp4741
S'475'
p4742
aS'Collection'
p4743
aS'J24'
p4744
aS'14'
p4745
aS'2'
p4746
aS'84'
p4747
aS'8'
p4748
aS'11'
p4749
aS'123'
p4750
aS'3'
p4751
aS'0'
p4752
aa(lp4753
S'476'
p4754
aS'Collection'
p4755
aS'J24'
p4756
aS'15'
p4757
aS'2'
p4758
aS'87'
p4759
aS'8'
p4760
aS'12'
p4761
aS'124'
p4762
aS'3'
p4763
aS'0'
p4764
aa(lp4765
S'477'
p4766
aS'Collection'
p4767
aS'J24'
p4768
aS'16'
p4769
aS'2'
p4770
aS'90'
p4771
aS'8'
p4772
aS'13'
p4773
aS'125'
p4774
aS'3'
p4775
aS'0'
p4776
aa(lp4777
S'478'
p4778
aS'Collection'
p4779
aS'J24'
p4780
aS'17'
p4781
aS'2'
p4782
aS'93'
p4783
aS'8'
p4784
aS'14'
p4785
aS'126'
p4786
aS'3'
p4787
aS'0'
p4788
aa(lp4789
S'479'
p4790
aS'Collection'
p4791
aS'J24'
p4792
aS'18'
p4793
aS'2'
p4794
aS'96'
p4795
aS'8'
p4796
aS'15'
p4797
aS'127'
p4798
aS'3'
p4799
aS'0'
p4800
aa(lp4801
S'160'
p4802
aS'Induction'
p4803
aS'J15'
p4804
aS'3'
p4805
aS'2'
p4806
aS'1'
p4807
aS'5'
p4808
aS'15'
p4809
aS'79'
p4810
aS'3'
p4811
aS'0'
p4812
aa(lp4813
S'161'
p4814
aS'Induction'
p4815
aS'J15'
p4816
aS'4'
p4817
aS'2'
p4818
aS'4'
p4819
aS'5'
p4820
aS'14'
p4821
aS'78'
p4822
aS'3'
p4823
aS'0'
p4824
aa(lp4825
S'162'
p4826
aS'Induction'
p4827
aS'J15'
p4828
aS'5'
p4829
aS'2'
p4830
aS'7'
p4831
aS'5'
p4832
aS'13'
p4833
aS'77'
p4834
aS'3'
p4835
aS'0'
p4836
aa(lp4837
S'163'
p4838
aS'Induction'
p4839
aS'J15'
p4840
aS'6'
p4841
aS'2'
p4842
aS'10'
p4843
aS'5'
p4844
aS'12'
p4845
aS'76'
p4846
aS'3'
p4847
aS'0'
p4848
aa(lp4849
S'164'
p4850
aS'Induction'
p4851
aS'J15'
p4852
aS'7'
p4853
aS'2'
p4854
aS'13'
p4855
aS'5'
p4856
aS'11'
p4857
aS'75'
p4858
aS'3'
p4859
aS'0'
p4860
aa(lp4861
S'165'
p4862
aS'Induction'
p4863
aS'J15'
p4864
aS'8'
p4865
aS'2'
p4866
aS'16'
p4867
aS'5'
p4868
aS'10'
p4869
aS'74'
p4870
aS'3'
p4871
aS'0'
p4872
aa(lp4873
S'166'
p4874
aS'Induction'
p4875
aS'J15'
p4876
aS'9'
p4877
aS'2'
p4878
aS'19'
p4879
aS'5'
p4880
aS'9'
p4881
aS'73'
p4882
aS'3'
p4883
aS'0'
p4884
aa(lp4885
S'167'
p4886
aS'Induction'
p4887
aS'J15'
p4888
aS'10'
p4889
aS'2'
p4890
aS'22'
p4891
aS'5'
p4892
aS'8'
p4893
aS'72'
p4894
aS'3'
p4895
aS'0'
p4896
aa(lp4897
S'168'
p4898
aS'Induction'
p4899
aS'J15'
p4900
aS'11'
p4901
aS'2'
p4902
aS'25'
p4903
aS'5'
p4904
aS'7'
p4905
aS'71'
p4906
aS'3'
p4907
aS'0'
p4908
aa(lp4909
S'169'
p4910
aS'Induction'
p4911
aS'J15'
p4912
aS'12'
p4913
aS'2'
p4914
aS'28'
p4915
aS'5'
p4916
aS'6'
p4917
aS'70'
p4918
aS'3'
p4919
aS'0'
p4920
aa(lp4921
S'170'
p4922
aS'Induction'
p4923
aS'J15'
p4924
aS'13'
p4925
aS'2'
p4926
aS'31'
p4927
aS'5'
p4928
aS'5'
p4929
aS'69'
p4930
aS'3'
p4931
aS'0'
p4932
aa(lp4933
S'171'
p4934
aS'Induction'
p4935
aS'J15'
p4936
aS'14'
p4937
aS'2'
p4938
aS'34'
p4939
aS'5'
p4940
aS'4'
p4941
aS'68'
p4942
aS'3'
p4943
aS'0'
p4944
aa(lp4945
S'172'
p4946
aS'Induction'
p4947
aS'J15'
p4948
aS'15'
p4949
aS'2'
p4950
aS'37'
p4951
aS'5'
p4952
aS'3'
p4953
aS'67'
p4954
aS'3'
p4955
aS'0'
p4956
aa(lp4957
S'173'
p4958
aS'Induction'
p4959
aS'J15'
p4960
aS'16'
p4961
aS'2'
p4962
aS'40'
p4963
aS'5'
p4964
aS'2'
p4965
aS'66'
p4966
aS'3'
p4967
aS'0'
p4968
aa(lp4969
S'174'
p4970
aS'Induction'
p4971
aS'J15'
p4972
aS'17'
p4973
aS'2'
p4974
aS'43'
p4975
aS'5'
p4976
aS'1'
p4977
aS'65'
p4978
aS'3'
p4979
aS'0'
p4980
aa(lp4981
S'175'
p4982
aS'Induction'
p4983
aS'J15'
p4984
aS'18'
p4985
aS'2'
p4986
aS'46'
p4987
aS'5'
p4988
aS'0'
p4989
aS'64'
p4990
aS'3'
p4991
aS'0'
p4992
aa(lp4993
S'176'
p4994
aS'Induction'
p4995
aS'J21'
p4996
aS'3'
p4997
aS'2'
p4998
aS'49'
p4999
aS'6'
p5000
aS'15'
p5001
aS'95'
p5002
aS'3'
p5003
aS'0'
p5004
aa(lp5005
S'177'
p5006
aS'Induction'
p5007
aS'J21'
p5008
aS'4'
p5009
aS'2'
p5010
aS'52'
p5011
aS'6'
p5012
aS'14'
p5013
aS'94'
p5014
aS'3'
p5015
aS'0'
p5016
aa(lp5017
S'178'
p5018
aS'Induction'
p5019
aS'J21'
p5020
aS'5'
p5021
aS'2'
p5022
aS'55'
p5023
aS'6'
p5024
aS'13'
p5025
aS'93'
p5026
aS'3'
p5027
aS'0'
p5028
aa(lp5029
S'179'
p5030
aS'Induction'
p5031
aS'J21'
p5032
aS'6'
p5033
aS'2'
p5034
aS'58'
p5035
aS'6'
p5036
aS'12'
p5037
aS'92'
p5038
aS'3'
p5039
aS'0'
p5040
aa(lp5041
S'180'
p5042
aS'Induction'
p5043
aS'J21'
p5044
aS'7'
p5045
aS'2'
p5046
aS'61'
p5047
aS'6'
p5048
aS'11'
p5049
aS'91'
p5050
aS'3'
p5051
aS'0'
p5052
aa(lp5053
S'181'
p5054
aS'Induction'
p5055
aS'J21'
p5056
aS'8'
p5057
aS'2'
p5058
aS'64'
p5059
aS'6'
p5060
aS'10'
p5061
aS'90'
p5062
aS'3'
p5063
aS'0'
p5064
aa(lp5065
S'182'
p5066
aS'Induction'
p5067
aS'J21'
p5068
aS'9'
p5069
aS'2'
p5070
aS'67'
p5071
aS'6'
p5072
aS'9'
p5073
aS'89'
p5074
aS'3'
p5075
aS'0'
p5076
aa(lp5077
S'183'
p5078
aS'Induction'
p5079
aS'J21'
p5080
aS'10'
p5081
aS'2'
p5082
aS'70'
p5083
aS'6'
p5084
aS'8'
p5085
aS'88'
p5086
aS'3'
p5087
aS'0'
p5088
aa(lp5089
S'184'
p5090
aS'Induction'
p5091
aS'J21'
p5092
aS'11'
p5093
aS'2'
p5094
aS'73'
p5095
aS'6'
p5096
aS'7'
p5097
aS'87'
p5098
aS'3'
p5099
aS'0'
p5100
aa(lp5101
S'185'
p5102
aS'Induction'
p5103
aS'J21'
p5104
aS'12'
p5105
aS'2'
p5106
aS'76'
p5107
aS'6'
p5108
aS'6'
p5109
aS'86'
p5110
aS'3'
p5111
aS'0'
p5112
aa(lp5113
S'186'
p5114
aS'Induction'
p5115
aS'J21'
p5116
aS'13'
p5117
aS'2'
p5118
aS'79'
p5119
aS'6'
p5120
aS'5'
p5121
aS'85'
p5122
aS'3'
p5123
aS'0'
p5124
aa(lp5125
S'187'
p5126
aS'Induction'
p5127
aS'J21'
p5128
aS'14'
p5129
aS'2'
p5130
aS'82'
p5131
aS'6'
p5132
aS'4'
p5133
aS'84'
p5134
aS'3'
p5135
aS'0'
p5136
aa(lp5137
S'188'
p5138
aS'Induction'
p5139
aS'J21'
p5140
aS'15'
p5141
aS'2'
p5142
aS'85'
p5143
aS'6'
p5144
aS'3'
p5145
aS'83'
p5146
aS'3'
p5147
aS'0'
p5148
aa(lp5149
S'189'
p5150
aS'Induction'
p5151
aS'J21'
p5152
aS'16'
p5153
aS'2'
p5154
aS'88'
p5155
aS'6'
p5156
aS'2'
p5157
aS'82'
p5158
aS'3'
p5159
aS'0'
p5160
aa(lp5161
S'190'
p5162
aS'Induction'
p5163
aS'J21'
p5164
aS'17'
p5165
aS'2'
p5166
aS'91'
p5167
aS'6'
p5168
aS'1'
p5169
aS'81'
p5170
aS'3'
p5171
aS'0'
p5172
aa(lp5173
S'191'
p5174
aS'Induction'
p5175
aS'J21'
p5176
aS'18'
p5177
aS'2'
p5178
aS'94'
p5179
aS'6'
p5180
aS'0'
p5181
aS'80'
p5182
aS'3'
p5183
aS'0'
p5184
aa(lp5185
S'192'
p5186
aS'Induction'
p5187
aS'J8'
p5188
aS'3'
p5189
aS'1'
p5190
aS'51'
p5191
aS'4'
p5192
aS'0'
p5193
aS'48'
p5194
aS'4'
p5195
aS'1'
p5196
aa(lp5197
S'193'
p5198
aS'Induction'
p5199
aS'J8'
p5200
aS'4'
p5201
aS'1'
p5202
aS'54'
p5203
aS'4'
p5204
aS'1'
p5205
aS'49'
p5206
aS'4'
p5207
aS'1'
p5208
aa(lp5209
S'194'
p5210
aS'Induction'
p5211
aS'J8'
p5212
aS'5'
p5213
aS'1'
p5214
aS'57'
p5215
aS'4'
p5216
aS'2'
p5217
aS'50'
p5218
aS'4'
p5219
aS'1'
p5220
aa(lp5221
S'195'
p5222
aS'Induction'
p5223
aS'J8'
p5224
aS'6'
p5225
aS'1'
p5226
aS'60'
p5227
aS'4'
p5228
aS'3'
p5229
aS'51'
p5230
aS'4'
p5231
aS'1'
p5232
aa(lp5233
S'196'
p5234
aS'Induction'
p5235
aS'J8'
p5236
aS'7'
p5237
aS'1'
p5238
aS'63'
p5239
aS'4'
p5240
aS'4'
p5241
aS'52'
p5242
aS'4'
p5243
aS'1'
p5244
aa(lp5245
S'197'
p5246
aS'Induction'
p5247
aS'J8'
p5248
aS'8'
p5249
aS'1'
p5250
aS'66'
p5251
aS'4'
p5252
aS'5'
p5253
aS'53'
p5254
aS'4'
p5255
aS'1'
p5256
aa(lp5257
S'198'
p5258
aS'Induction'
p5259
aS'J8'
p5260
aS'9'
p5261
aS'1'
p5262
aS'69'
p5263
aS'4'
p5264
aS'6'
p5265
aS'54'
p5266
aS'4'
p5267
aS'1'
p5268
aa(lp5269
S'199'
p5270
aS'Induction'
p5271
aS'J8'
p5272
aS'10'
p5273
aS'1'
p5274
aS'72'
p5275
aS'4'
p5276
aS'7'
p5277
aS'55'
p5278
aS'4'
p5279
aS'1'
p5280
aa(lp5281
S'200'
p5282
aS'Induction'
p5283
aS'J8'
p5284
aS'11'
p5285
aS'1'
p5286
aS'75'
p5287
aS'4'
p5288
aS'8'
p5289
aS'56'
p5290
aS'4'
p5291
aS'1'
p5292
aa(lp5293
S'201'
p5294
aS'Induction'
p5295
aS'J8'
p5296
aS'12'
p5297
aS'1'
p5298
aS'78'
p5299
aS'4'
p5300
aS'9'
p5301
aS'57'
p5302
aS'4'
p5303
aS'1'
p5304
aa(lp5305
S'202'
p5306
aS'Induction'
p5307
aS'J8'
p5308
aS'13'
p5309
aS'1'
p5310
aS'81'
p5311
aS'4'
p5312
aS'10'
p5313
aS'58'
p5314
aS'4'
p5315
aS'1'
p5316
aa(lp5317
S'203'
p5318
aS'Induction'
p5319
aS'J8'
p5320
aS'14'
p5321
aS'1'
p5322
aS'84'
p5323
aS'4'
p5324
aS'11'
p5325
aS'59'
p5326
aS'4'
p5327
aS'1'
p5328
aa(lp5329
S'204'
p5330
aS'Induction'
p5331
aS'J8'
p5332
aS'15'
p5333
aS'1'
p5334
aS'87'
p5335
aS'4'
p5336
aS'12'
p5337
aS'60'
p5338
aS'4'
p5339
aS'1'
p5340
aa(lp5341
S'205'
p5342
aS'Induction'
p5343
aS'J8'
p5344
aS'16'
p5345
aS'1'
p5346
aS'90'
p5347
aS'4'
p5348
aS'13'
p5349
aS'61'
p5350
aS'4'
p5351
aS'1'
p5352
aa(lp5353
S'206'
p5354
aS'Induction'
p5355
aS'J8'
p5356
aS'17'
p5357
aS'1'
p5358
aS'93'
p5359
aS'4'
p5360
aS'14'
p5361
aS'62'
p5362
aS'4'
p5363
aS'1'
p5364
aa(lp5365
S'207'
p5366
aS'Induction'
p5367
aS'J8'
p5368
aS'18'
p5369
aS'1'
p5370
aS'96'
p5371
aS'4'
p5372
aS'15'
p5373
aS'63'
p5374
aS'4'
p5375
aS'1'
p5376
aa(lp5377
S'208'
p5378
aS'Induction'
p5379
aS'J14'
p5380
aS'3'
p5381
aS'2'
p5382
aS'3'
p5383
aS'3'
p5384
aS'0'
p5385
aS'32'
p5386
aS'4'
p5387
aS'1'
p5388
aa(lp5389
S'209'
p5390
aS'Induction'
p5391
aS'J14'
p5392
aS'4'
p5393
aS'2'
p5394
aS'6'
p5395
aS'3'
p5396
aS'1'
p5397
aS'33'
p5398
aS'4'
p5399
aS'1'
p5400
aa(lp5401
S'210'
p5402
aS'Induction'
p5403
aS'J14'
p5404
aS'5'
p5405
aS'2'
p5406
aS'9'
p5407
aS'3'
p5408
aS'2'
p5409
aS'34'
p5410
aS'4'
p5411
aS'1'
p5412
aa(lp5413
S'211'
p5414
aS'Induction'
p5415
aS'J14'
p5416
aS'6'
p5417
aS'2'
p5418
aS'12'
p5419
aS'3'
p5420
aS'3'
p5421
aS'35'
p5422
aS'4'
p5423
aS'1'
p5424
aa(lp5425
S'212'
p5426
aS'Induction'
p5427
aS'J14'
p5428
aS'7'
p5429
aS'2'
p5430
aS'15'
p5431
aS'3'
p5432
aS'4'
p5433
aS'36'
p5434
aS'4'
p5435
aS'1'
p5436
aa(lp5437
S'213'
p5438
aS'Induction'
p5439
aS'J14'
p5440
aS'8'
p5441
aS'2'
p5442
aS'18'
p5443
aS'3'
p5444
aS'5'
p5445
aS'37'
p5446
aS'4'
p5447
aS'1'
p5448
aa(lp5449
S'214'
p5450
aS'Induction'
p5451
aS'J14'
p5452
aS'9'
p5453
aS'2'
p5454
aS'21'
p5455
aS'3'
p5456
aS'6'
p5457
aS'38'
p5458
aS'4'
p5459
aS'1'
p5460
aa(lp5461
S'215'
p5462
aS'Induction'
p5463
aS'J14'
p5464
aS'10'
p5465
aS'2'
p5466
aS'24'
p5467
aS'3'
p5468
aS'7'
p5469
aS'39'
p5470
aS'4'
p5471
aS'1'
p5472
aa(lp5473
S'216'
p5474
aS'Induction'
p5475
aS'J14'
p5476
aS'11'
p5477
aS'2'
p5478
aS'27'
p5479
aS'3'
p5480
aS'8'
p5481
aS'40'
p5482
aS'4'
p5483
aS'1'
p5484
aa(lp5485
S'217'
p5486
aS'Induction'
p5487
aS'J14'
p5488
aS'12'
p5489
aS'2'
p5490
aS'30'
p5491
aS'3'
p5492
aS'9'
p5493
aS'41'
p5494
aS'4'
p5495
aS'1'
p5496
aa(lp5497
S'218'
p5498
aS'Induction'
p5499
aS'J14'
p5500
aS'13'
p5501
aS'2'
p5502
aS'33'
p5503
aS'3'
p5504
aS'10'
p5505
aS'42'
p5506
aS'4'
p5507
aS'1'
p5508
aa(lp5509
S'219'
p5510
aS'Induction'
p5511
aS'J14'
p5512
aS'14'
p5513
aS'2'
p5514
aS'36'
p5515
aS'3'
p5516
aS'11'
p5517
aS'43'
p5518
aS'4'
p5519
aS'1'
p5520
aa(lp5521
S'220'
p5522
aS'Induction'
p5523
aS'J14'
p5524
aS'15'
p5525
aS'2'
p5526
aS'39'
p5527
aS'3'
p5528
aS'12'
p5529
aS'44'
p5530
aS'4'
p5531
aS'1'
p5532
aa(lp5533
S'221'
p5534
aS'Induction'
p5535
aS'J14'
p5536
aS'16'
p5537
aS'2'
p5538
aS'42'
p5539
aS'3'
p5540
aS'13'
p5541
aS'45'
p5542
aS'4'
p5543
aS'1'
p5544
aa(lp5545
S'222'
p5546
aS'Induction'
p5547
aS'J14'
p5548
aS'17'
p5549
aS'2'
p5550
aS'45'
p5551
aS'3'
p5552
aS'14'
p5553
aS'46'
p5554
aS'4'
p5555
aS'1'
p5556
aa(lp5557
S'223'
p5558
aS'Induction'
p5559
aS'J14'
p5560
aS'18'
p5561
aS'2'
p5562
aS'48'
p5563
aS'3'
p5564
aS'15'
p5565
aS'47'
p5566
aS'4'
p5567
aS'1'
p5568
aa(lp5569
S'224'
p5570
aS'Induction'
p5571
aS'J20'
p5572
aS'3'
p5573
aS'2'
p5574
aS'51'
p5575
aS'7'
p5576
aS'0'
p5577
aS'96'
p5578
aS'4'
p5579
aS'1'
p5580
aa(lp5581
S'225'
p5582
aS'Induction'
p5583
aS'J20'
p5584
aS'4'
p5585
aS'2'
p5586
aS'54'
p5587
aS'7'
p5588
aS'1'
p5589
aS'97'
p5590
aS'4'
p5591
aS'1'
p5592
aa(lp5593
S'226'
p5594
aS'Induction'
p5595
aS'J20'
p5596
aS'5'
p5597
aS'2'
p5598
aS'57'
p5599
aS'7'
p5600
aS'2'
p5601
aS'98'
p5602
aS'4'
p5603
aS'1'
p5604
aa(lp5605
S'227'
p5606
aS'Induction'
p5607
aS'J20'
p5608
aS'6'
p5609
aS'2'
p5610
aS'60'
p5611
aS'7'
p5612
aS'3'
p5613
aS'99'
p5614
aS'4'
p5615
aS'1'
p5616
aa(lp5617
S'228'
p5618
aS'Induction'
p5619
aS'J20'
p5620
aS'7'
p5621
aS'2'
p5622
aS'63'
p5623
aS'7'
p5624
aS'4'
p5625
aS'100'
p5626
aS'4'
p5627
aS'1'
p5628
aa(lp5629
S'229'
p5630
aS'Induction'
p5631
aS'J20'
p5632
aS'8'
p5633
aS'2'
p5634
aS'66'
p5635
aS'7'
p5636
aS'5'
p5637
aS'101'
p5638
aS'4'
p5639
aS'1'
p5640
aa(lp5641
S'230'
p5642
aS'Induction'
p5643
aS'J20'
p5644
aS'9'
p5645
aS'2'
p5646
aS'69'
p5647
aS'7'
p5648
aS'6'
p5649
aS'102'
p5650
aS'4'
p5651
aS'1'
p5652
aa(lp5653
S'231'
p5654
aS'Induction'
p5655
aS'J20'
p5656
aS'10'
p5657
aS'2'
p5658
aS'72'
p5659
aS'7'
p5660
aS'7'
p5661
aS'103'
p5662
aS'4'
p5663
aS'1'
p5664
aa(lp5665
S'232'
p5666
aS'Induction'
p5667
aS'J20'
p5668
aS'11'
p5669
aS'2'
p5670
aS'75'
p5671
aS'7'
p5672
aS'8'
p5673
aS'104'
p5674
aS'4'
p5675
aS'1'
p5676
aa(lp5677
S'233'
p5678
aS'Induction'
p5679
aS'J20'
p5680
aS'12'
p5681
aS'2'
p5682
aS'78'
p5683
aS'7'
p5684
aS'9'
p5685
aS'105'
p5686
aS'4'
p5687
aS'1'
p5688
aa(lp5689
S'234'
p5690
aS'Induction'
p5691
aS'J20'
p5692
aS'13'
p5693
aS'2'
p5694
aS'81'
p5695
aS'7'
p5696
aS'10'
p5697
aS'106'
p5698
aS'4'
p5699
aS'1'
p5700
aa(lp5701
S'235'
p5702
aS'Induction'
p5703
aS'J20'
p5704
aS'14'
p5705
aS'2'
p5706
aS'84'
p5707
aS'7'
p5708
aS'11'
p5709
aS'107'
p5710
aS'4'
p5711
aS'1'
p5712
aa(lp5713
S'236'
p5714
aS'Induction'
p5715
aS'J20'
p5716
aS'15'
p5717
aS'2'
p5718
aS'87'
p5719
aS'7'
p5720
aS'12'
p5721
aS'108'
p5722
aS'4'
p5723
aS'1'
p5724
aa(lp5725
S'237'
p5726
aS'Induction'
p5727
aS'J20'
p5728
aS'16'
p5729
aS'2'
p5730
aS'90'
p5731
aS'7'
p5732
aS'13'
p5733
aS'109'
p5734
aS'4'
p5735
aS'1'
p5736
aa(lp5737
S'238'
p5738
aS'Induction'
p5739
aS'J20'
p5740
aS'17'
p5741
aS'2'
p5742
aS'93'
p5743
aS'7'
p5744
aS'14'
p5745
aS'110'
p5746
aS'4'
p5747
aS'1'
p5748
aa(lp5749
S'239'
p5750
aS'Induction'
p5751
aS'J20'
p5752
aS'18'
p5753
aS'2'
p5754
aS'96'
p5755
aS'7'
p5756
aS'15'
p5757
aS'111'
p5758
aS'4'
p5759
aS'1'
p5760
aa.